ccopy_reg
_reconstructor
p0
(cFWCore.ParameterSet.Config
Process
p1
c__builtin__
object
p2
Ntp3
Rp4
(dp5
V_Process__name
p6
VSKIM
p7
sV_Process__filters
p8
(dp9
sV_Process__producers
p10
(dp11
sV_Process__switchproducers
p12
(dp13
sV_Process__source
p14
g0
(cFWCore.ParameterSet.Modules
Source
p15
g2
Ntp16
Rp17
(dp18
V_TypedParameterizable__type
p19
VPoolSource
p20
sV_Parameterizable__parameterNames
p21
(lp22
VfileNames
p23
asV_isFrozen
p24
I00
sV_Parameterizable__validator
p25
Nsg23
g0
(cFWCore.ParameterSet.Types
vstring
p26
c__builtin__
list
p27
(lp28
V/store/data/Run2022F/ParkingDoubleMuonLowMass0/MINIAOD/PromptReco-v1/000/360/390/00000/05607e2d-f8e5-41a7-8392-bb5d44c16a6d.root
p29
atp30
Rp31
(dp32
g24
I00
sV_ParameterTypeBase__isTracked
p33
I00
sV_isModified
p34
I00
sV_nPerLine
p35
I1
sbsg34
I00
sV_filename
p36
V/cvmfs/cms.cern.ch/slc7_amd64_gcc10/cms/cmssw/CMSSW_12_4_2/python/FWCore/ParameterSet/Modules.py
p37
sV_lineNumber
p38
I195
sbsV_Process__looper
p39
NsV_Process__subProcesses
p40
(lp41
sV_Process__schedule
p42
NsV_Process__analyzers
p43
(dp44
Vtree
p45
g0
(cFWCore.ParameterSet.Modules
EDAnalyzer
p46
g2
Ntp47
Rp48
(dp49
g19
VMuMuGammaTreeMaker
p50
sg21
(lp51
Vtriggerresults
p52
aVReadPrescalesFromFile
p53
aVAlgInputTag
p54
aVl1tAlgBlkInputTag
p55
aVl1tExtBlkInputTag
p56
aVdoL1
p57
aVl1Seeds
p58
aVmuons
p59
aVelectrons
p60
aVphotons
p61
aVpfcands
p62
aVprimaryVertices
p63
aVdisplacedVertices
p64
asg24
I00
sg25
Nsg52
g0
(cFWCore.ParameterSet.Types
InputTag
p65
g2
Ntp66
Rp67
(dp68
g24
I00
sg33
I01
sg34
I00
sV_InputTag__moduleLabel
p69
VTriggerResults
p70
sV_InputTag__productInstance
p71
V
p72
sV_InputTag__processName
p73
VHLT
p74
sbsg34
I00
sg53
g0
(cFWCore.ParameterSet.Types
bool
p75
g2
Ntp76
Rp77
(dp78
g24
I00
sg33
I01
sg34
I00
sV_value
p79
I00
sbsg54
g0
(g65
g2
Ntp80
Rp81
(dp82
g24
I00
sg33
I01
sg34
I00
sg69
VgtStage2Digis
p83
sg71
g72
sg73
g72
sbsg55
g0
(g65
g2
Ntp84
Rp85
(dp86
g24
I00
sg33
I01
sg34
I00
sg69
g83
sg71
g72
sg73
g72
sbsg56
g0
(g65
g2
Ntp87
Rp88
(dp89
g24
I00
sg33
I01
sg34
I00
sg69
g83
sg71
g72
sg73
g72
sbsg57
g0
(g75
g2
Ntp90
Rp91
(dp92
g24
I00
sg33
I01
sg34
I00
sg79
I01
sbsg58
g0
(g26
g27
(lp93
VL1_DoubleMu3er2p0_SQ_OS_dR_Max1p4
p94
aVL1_DoubleMu0er2p0_SQ_OS_dEta_Max1p6
p95
aVL1_DoubleMu0er1p4_OQ_OS_dEta_Max1p6
p96
aVL1_DoubleMu0er2p0_SQ_OS_dEta_Max1p5
p97
aVL1_DoubleMu0er1p4_SQ_OS_dR_Max1p4
p98
aVL1_DoubleMu0er1p5_SQ_OS_dR_Max1p4
p99
aVL1_DoubleMu4p5_SQ_OS_dR_Max1p2
p100
aVL1_DoubleMu4_SQ_OS_dR_Max1p2
p101
atp102
Rp103
(dp104
g24
I00
sg33
I01
sg34
I00
sg35
I1
sbsg59
g0
(g65
g2
Ntp105
Rp106
(dp107
g24
I00
sg33
I01
sg34
I00
sg69
VslimmedMuons
p108
sg71
g72
sg73
g72
sbsg60
g0
(g65
g2
Ntp109
Rp110
(dp111
g24
I00
sg33
I01
sg34
I00
sg69
VslimmedElectrons
p112
sg71
g72
sg73
g72
sbsg61
g0
(g65
g2
Ntp113
Rp114
(dp115
g24
I00
sg33
I01
sg34
I00
sg69
VslimmedPhotons
p116
sg71
g72
sg73
g72
sbsg62
g0
(g65
g2
Ntp117
Rp118
(dp119
g24
I00
sg33
I01
sg34
I00
sg69
VpackedPFCandidates
p120
sg71
g72
sg73
g72
sbsg63
g0
(g65
g2
Ntp121
Rp122
(dp123
g24
I00
sg33
I01
sg34
I00
sg69
VofflineSlimmedPrimaryVertices
p124
sg71
g72
sg73
g72
sbsg64
g0
(g65
g2
Ntp125
Rp126
(dp127
g24
I00
sg33
I01
sg34
I00
sg69
VslimmedSecondaryVertices
p128
sg71
g72
sg73
g72
sbsg36
V/afs/cern.ch/user/j/jfriesen/CMSSW_12_4_2/src/Run3DimuonAnalysisTools/muMuGammaTree.py
p129
sg38
I42
sV_Labelable__label
p130
g45
sbssV_Process__outputmodules
p131
(dp132
sV_Process__paths
p133
g0
(cFWCore.ParameterSet.DictTypes
SortedKeysDict
p134
c__builtin__
dict
p135
(dp136
Vp
p137
g0
(cFWCore.ParameterSet.SequenceTypes
Path
p138
g2
Ntp139
Rp140
(dp141
g24
I00
sV_seq
p142
g0
(cFWCore.ParameterSet.SequenceTypes
_SequenceCollection
p143
g2
Ntp144
Rp145
(dp146
V_collection
p147
(lp148
g48
asbsg34
I00
sV_tasks
p149
g0
(cFWCore.ParameterSet.OrderedSet
OrderedSet
p150
g2
Ntp151
Rp152
(dp153
Vend
p154
(lp155
Nag155
ag155
asVmap
p156
(dp157
sbsg130
g137
sbstp158
Rp159
(dp160
Vlist
p161
(lp162
g137
asbsV_Process__endpaths
p163
g0
(g134
g135
(dp164
tp165
Rp166
(dp167
g161
(lp168
sbsV_Process__finalpaths
p169
g0
(g134
g135
(dp170
tp171
Rp172
(dp173
g161
(lp174
sbsV_Process__sequences
p175
(dp176
sV_Process__tasks
p177
(dp178
sV_Process__conditionaltasks
p179
(dp180
sV_Process__services
p181
(dp182
VMessageLogger
p183
g0
(cFWCore.ParameterSet.Modules
Service
p184
g2
Ntp185
Rp186
(dp187
g19
g183
sg21
(lp188
VsuppressWarning
p189
aVsuppressFwkInfo
p190
aVsuppressInfo
p191
aVsuppressDebug
p192
aVdebugModules
p193
aVcout
p194
aVdefault
p195
aVcerr
p196
aVfiles
p197
asg24
I00
sg25
g0
(cFWCore.ParameterSet.Types
_OptionalParameter
p198
g2
Ntp199
Rp200
(dp201
g24
I00
sg33
I00
sg34
I00
sV_ProxyParameter__type
p202
g0
(cFWCore.ParameterSet.Types
_PSetTemplate
p203
g2
Ntp204
Rp205
(dp206
V_pset
p207
g0
(cFWCore.ParameterSet.Types
PSet
p208
g2
Ntp209
Rp210
(dp211
g24
I00
sg33
I01
sg34
I00
sg21
(lp212
VreportEvery
p213
aVlimit
p214
aVtimespan
p215
asg25
Nsg213
g0
(cFWCore.ParameterSet.Types
int32
p216
g2
Ntp217
Rp218
(dp219
g24
I00
sg33
I00
sg34
I00
sg79
I1
sbsg214
g0
(g198
g2
Ntp220
Rp221
(dp222
g24
I00
sg33
I00
sg34
I00
sg202
g216
sV_ProxyParameter__value
p223
Nsbsg215
g0
(g198
g2
Ntp224
Rp225
(dp226
g24
I00
sg33
I00
sg34
I00
sg202
g216
sg223
NsbsbsV_PSetTemplate__value
p227
Nsbsg223
Nsbsg189
g0
(g26
g27
(lp228
tp229
Rp230
(dp231
g24
I00
sg33
I00
sg34
I00
sg35
I1
sbsg34
I00
sg190
g0
(g26
g27
(lp232
tp233
Rp234
(dp235
g24
I00
sg33
I00
sg34
I00
sg35
I1
sbsg191
g0
(g26
g27
(lp236
tp237
Rp238
(dp239
g24
I00
sg33
I00
sg34
I00
sg35
I1
sbsg192
g0
(g26
g27
(lp240
tp241
Rp242
(dp243
g24
I00
sg33
I00
sg34
I00
sg35
I1
sbsg193
g0
(g26
g27
(lp244
tp245
Rp246
(dp247
g24
I00
sg33
I00
sg34
I00
sg35
I1
sbsg194
g0
(g208
g2
Ntp248
Rp249
(dp250
g24
I00
sg33
I00
sg34
I00
sg21
(lp251
VnoLineBreaks
p252
aVnoTimeStamps
p253
aVlineLength
p254
aVthreshold
p255
aVstatisticsThreshold
p256
aVenableStatistics
p257
aVresetStatistics
p258
aVenable
p259
asg25
g200
sg252
g0
(g198
g2
Ntp260
Rp261
(dp262
g24
I00
sg33
I00
sg34
I00
sg202
g75
sg223
Nsbsg253
g0
(g198
g2
Ntp263
Rp264
(dp265
g24
I00
sg33
I00
sg34
I00
sg202
g75
sg223
Nsbsg254
g0
(g198
g2
Ntp266
Rp267
(dp268
g24
I00
sg33
I00
sg34
I00
sg202
g216
sg223
Nsbsg255
g0
(g198
g2
Ntp269
Rp270
(dp271
g24
I00
sg33
I00
sg34
I00
sg202
cFWCore.ParameterSet.Types
string
p272
sg223
Nsbsg256
g0
(g198
g2
Ntp273
Rp274
(dp275
g24
I00
sg33
I00
sg34
I00
sg202
g272
sg223
Nsbsg257
g0
(g75
g2
Ntp276
Rp277
(dp278
g24
I00
sg33
I00
sg34
I00
sg79
I00
sbsg258
g0
(g75
g2
Ntp279
Rp280
(dp281
g24
I00
sg33
I00
sg34
I00
sg79
I00
sbsg259
g0
(g75
g2
Ntp282
Rp283
(dp284
g24
I00
sg33
I00
sg34
I00
sg79
I00
sbsbsg195
g0
(g208
g2
Ntp285
Rp286
(dp287
g24
I00
sg33
I00
sg34
I00
sg21
(lp288
g213
ag214
ag215
ag252
ag253
ag254
ag255
ag256
asg25
g200
sg213
g0
(g216
g2
Ntp289
Rp290
(dp291
g24
I00
sg33
I00
sg34
I00
sg79
I1
sbsg214
g0
(g198
g2
Ntp292
Rp293
(dp294
g24
I00
sg33
I00
sg34
I00
sg202
g216
sg223
Nsbsg215
g0
(g198
g2
Ntp295
Rp296
(dp297
g24
I00
sg33
I00
sg34
I00
sg202
g216
sg223
Nsbsg252
g0
(g75
g2
Ntp298
Rp299
(dp300
g24
I00
sg33
I00
sg34
I00
sg79
I00
sbsg253
g0
(g75
g2
Ntp301
Rp302
(dp303
g24
I00
sg33
I00
sg34
I00
sg79
I00
sbsg254
g0
(g216
g2
Ntp304
Rp305
(dp306
g24
I00
sg33
I00
sg34
I00
sg79
I80
sbsg255
g0
(g272
g2
Ntp307
Rp308
(dp309
g24
I00
sg33
I00
sg34
I00
sg79
VINFO
p310
sbsg256
g0
(g272
g2
Ntp311
Rp312
(dp313
g24
I00
sg33
I00
sg34
I00
sg79
g310
sbsbsg196
g0
(g208
g2
Ntp314
Rp315
(dp316
g24
I00
sg33
I00
sg34
I00
sg21
(lp317
g252
ag253
ag254
ag255
ag256
ag259
ag257
ag258
ag310
aVFwkReport
p318
ag195
aVRoot_NoDictionary
p319
aVFwkSummary
p320
asg25
g200
sg252
g0
(g198
g2
Ntp321
Rp322
(dp323
g24
I00
sg33
I00
sg34
I00
sg202
g75
sg223
Nsbsg253
g0
(g75
g2
Ntp324
Rp325
(dp326
g24
I00
sg33
I00
sg34
I00
sg79
I00
sbsg254
g0
(g198
g2
Ntp327
Rp328
(dp329
g24
I00
sg33
I00
sg34
I00
sg202
g216
sg223
Nsbsg255
g0
(g272
g2
Ntp330
Rp331
(dp332
g24
I00
sg33
I00
sg34
I00
sg79
g310
sbsg256
g0
(g272
g2
Ntp333
Rp334
(dp335
g24
I00
sg33
I00
sg34
I00
sg79
VWARNING
p336
sbsg259
g0
(g75
g2
Ntp337
Rp338
(dp339
g24
I00
sg33
I00
sg34
I00
sg79
I01
sbsg257
g0
(g75
g2
Ntp340
Rp341
(dp342
g24
I00
sg33
I00
sg34
I00
sg79
I01
sbsg258
g0
(g75
g2
Ntp343
Rp344
(dp345
g24
I00
sg33
I00
sg34
I00
sg79
I00
sbsg310
g0
(g208
g2
Ntp346
Rp347
(dp348
g24
I00
sg33
I00
sg34
I00
sg21
(lp349
g214
asg25
Nsg214
g0
(g216
g2
Ntp350
Rp351
(dp352
g24
I00
sg33
I00
sg34
I00
sg79
I0
sbsbsg318
g0
(g208
g2
Ntp353
Rp354
(dp355
g24
I00
sg33
I00
sg34
I01
sg21
(lp356
g213
ag214
asg25
Nsg213
g0
(g216
g2
Ntp357
Rp358
(dp359
g24
I00
sg33
I00
sg34
I01
sg79
I1000
sbsg214
g0
(g216
g2
Ntp360
Rp361
(dp362
g24
I00
sg33
I00
sg34
I00
sg79
I10000000
sbsbsg195
g0
(g208
g2
Ntp363
Rp364
(dp365
g24
I00
sg33
I00
sg34
I00
sg21
(lp366
g214
asg25
Nsg214
g0
(g216
g2
Ntp367
Rp368
(dp369
g24
I00
sg33
I00
sg34
I00
sg79
I10000000
sbsbsg319
g0
(g208
g2
Ntp370
Rp371
(dp372
g24
I00
sg33
I00
sg34
I00
sg21
(lp373
g214
asg25
Nsg214
g0
(g216
g2
Ntp374
Rp375
(dp376
g24
I00
sg33
I00
sg34
I00
sg79
I0
sbsbsg320
g0
(g208
g2
Ntp377
Rp378
(dp379
g24
I00
sg33
I00
sg34
I01
sg21
(lp380
g213
ag214
asg25
Nsg213
g0
(g216
g2
Ntp381
Rp382
(dp383
g24
I00
sg33
I00
sg34
I01
sg79
I1000
sbsg214
g0
(g216
g2
Ntp384
Rp385
(dp386
g24
I00
sg33
I00
sg34
I00
sg79
I10000000
sbsbsbsg197
g0
(g208
g2
Ntp387
Rp388
(dp389
g24
I00
sg33
I00
sg34
I00
sg21
(lp390
sg25
g0
(g198
g2
Ntp391
Rp392
(dp393
g24
I00
sg33
I00
sg34
I00
sg202
g0
(g203
g2
Ntp394
Rp395
(dp396
g207
g0
(g208
g2
Ntp397
Rp398
(dp399
g24
I00
sg33
I01
sg34
I00
sg21
(lp400
g252
ag253
ag254
ag255
ag256
ag257
ag258
aVfilename
p401
aVextension
p402
aVoutput
p403
asg25
g200
sg252
g0
(g198
g2
Ntp404
Rp405
(dp406
g24
I00
sg33
I00
sg34
I00
sg202
g75
sg223
Nsbsg253
g0
(g198
g2
Ntp407
Rp408
(dp409
g24
I00
sg33
I00
sg34
I00
sg202
g75
sg223
Nsbsg254
g0
(g198
g2
Ntp410
Rp411
(dp412
g24
I00
sg33
I00
sg34
I00
sg202
g216
sg223
Nsbsg255
g0
(g198
g2
Ntp413
Rp414
(dp415
g24
I00
sg33
I00
sg34
I00
sg202
g272
sg223
Nsbsg256
g0
(g198
g2
Ntp416
Rp417
(dp418
g24
I00
sg33
I00
sg34
I00
sg202
g272
sg223
Nsbsg257
g0
(g75
g2
Ntp419
Rp420
(dp421
g24
I00
sg33
I00
sg34
I00
sg79
I00
sbsg258
g0
(g75
g2
Ntp422
Rp423
(dp424
g24
I00
sg33
I00
sg34
I00
sg79
I00
sbsg401
g0
(g198
g2
Ntp425
Rp426
(dp427
g24
I00
sg33
I00
sg34
I00
sg202
g272
sg223
Nsbsg402
g0
(g198
g2
Ntp428
Rp429
(dp430
g24
I00
sg33
I00
sg34
I00
sg202
g272
sg223
Nsbsg403
g0
(g198
g2
Ntp431
Rp432
(dp433
g24
I00
sg33
I00
sg34
I00
sg202
g272
sg223
Nsbsbsg227
Nsbsg223
Nsbsbsg36
g37
sg38
I13
sV_inProcess
p434
I00
sbsVTFileService
p435
g0
(g184
g2
Ntp436
Rp437
(dp438
g19
g435
sg21
(lp439
VfileName
p440
asg24
I00
sg25
Nsg440
g0
(g272
g2
Ntp441
Rp442
(dp443
g24
I00
sg33
I01
sg34
I00
sg79
VmmgTree.root
p444
sbsg34
I00
sg36
g37
sg38
I13
sg434
I01
sbssV_Process__essources
p445
(dp446
Veegeom
p447
g0
(cFWCore.ParameterSet.Modules
ESSource
p448
g2
Ntp449
Rp450
(dp451
g19
VEmptyESSource
p452
sg21
(lp453
VrecordName
p454
aViovIsRunNotTime
p455
aVfirstValid
p456
asg24
I00
sg25
Nsg454
g0
(g272
g2
Ntp457
Rp458
(dp459
g24
I00
sg33
I01
sg34
I00
sg79
VEcalMappingRcd
p460
sbsg34
I00
sg455
g0
(g75
g2
Ntp461
Rp462
(dp463
g24
I00
sg33
I01
sg34
I00
sg79
I01
sbsg456
g0
(cFWCore.ParameterSet.Types
vuint32
p464
g27
(lp465
I1
atp466
Rp467
(dp468
g24
I00
sg33
I01
sg34
I00
sbsg36
V/cvmfs/cms.cern.ch/slc7_amd64_gcc10/cms/cmssw/CMSSW_12_4_2/python/Geometry/EcalMapping/EcalMappingRecord_cfi.py
p469
sg38
I3
sg130
g447
sbsVGlobalTag
p470
g0
(g448
g2
Ntp471
Rp472
(dp473
g19
VPoolDBESSource
p474
sg21
(lp475
VDBParameters
p476
aVconnect
p477
aVglobaltag
p478
aVsnapshotTime
p479
aVtoGet
p480
aVDumpStat
p481
aVReconnectEachRun
p482
aVRefreshAlways
p483
aVRefreshEachRun
p484
aVRefreshOpenIOVs
p485
aVpfnPostfix
p486
aVpfnPrefix
p487
asg24
I00
sg25
Nsg476
g0
(g208
g2
Ntp488
Rp489
(dp490
g24
I00
sg33
I01
sg34
I00
sg21
(lp491
VauthenticationPath
p492
aVauthenticationSystem
p493
aVsecurity
p494
aVmessageLevel
p495
aVconnectionTimeout
p496
asg25
Nsg492
g0
(g272
g2
Ntp497
Rp498
(dp499
g24
I00
sg33
I00
sg34
I00
sg79
g72
sbsg493
g0
(g216
g2
Ntp500
Rp501
(dp502
g24
I00
sg33
I00
sg34
I00
sg79
I0
sbsg494
g0
(g272
g2
Ntp503
Rp504
(dp505
g24
I00
sg33
I00
sg34
I00
sg79
g72
sbsg495
g0
(g216
g2
Ntp506
Rp507
(dp508
g24
I00
sg33
I00
sg34
I00
sg79
I0
sbsg496
g0
(g216
g2
Ntp509
Rp510
(dp511
g24
I00
sg33
I00
sg34
I00
sg79
I0
sbsbsg34
I01
sg477
g0
(g272
g2
Ntp512
Rp513
(dp514
g24
I00
sg33
I01
sg34
I00
sg79
Vfrontier://FrontierProd/CMS_CONDITIONS
p515
sbsg478
g0
(g272
g2
Ntp516
Rp517
(dp518
g24
I00
sg33
I01
sg34
I00
sg79
V124X_dataRun3_Prompt_v4
p519
sbsg479
g0
(g272
g2
Ntp520
Rp521
(dp522
g24
I00
sg33
I01
sg34
I00
sg79
g72
sbsg480
g0
(cFWCore.ParameterSet.Types
VPSet
p523
g27
(lp524
tp525
Rp526
(dp527
g24
I00
sg33
I01
sg34
I00
sg35
I1
sbsg481
g0
(g75
g2
Ntp528
Rp529
(dp530
g24
I00
sg33
I00
sg34
I00
sg79
I00
sbsg482
g0
(g75
g2
Ntp531
Rp532
(dp533
g24
I00
sg33
I00
sg34
I00
sg79
I00
sbsg483
g0
(g75
g2
Ntp534
Rp535
(dp536
g24
I00
sg33
I00
sg34
I00
sg79
I00
sbsg484
g0
(g75
g2
Ntp537
Rp538
(dp539
g24
I00
sg33
I00
sg34
I00
sg79
I00
sbsg485
g0
(g75
g2
Ntp540
Rp541
(dp542
g24
I00
sg33
I00
sg34
I00
sg79
I00
sbsg486
g0
(g272
g2
Ntp543
Rp544
(dp545
g24
I00
sg33
I00
sg34
I00
sg79
g72
sbsg487
g0
(g272
g2
Ntp546
Rp547
(dp548
g24
I00
sg33
I00
sg34
I00
sg79
g72
sbsg36
V/cvmfs/cms.cern.ch/slc7_amd64_gcc10/cms/cmssw/CMSSW_12_4_2/python/CondCore/ESSources/CondDBESSource_cfi.py
p549
sg38
I8
sg130
g470
sbsVHcalTimeSlewEP
p550
g0
(g448
g2
Ntp551
Rp552
(dp553
g19
g550
sg21
(lp554
VappendToDataLabel
p555
aVtimeSlewParametersM2
p556
aVtimeSlewParametersM3
p557
asg24
I00
sg25
Nsg555
g0
(g272
g2
Ntp558
Rp559
(dp560
g24
I00
sg33
I01
sg34
I00
sg79
VHBHE
p561
sbsg34
I00
sg556
g0
(g523
g27
(lp562
g0
(g208
g2
Ntp563
Rp564
(dp565
g24
I00
sg33
I01
sg34
I00
sg21
(lp566
Vtzero
p567
aVslope
p568
aVtmax
p569
asg25
Nsg567
g0
(cFWCore.ParameterSet.Types
double
p570
g2
Ntp571
Rp572
(dp573
g24
I00
sg33
I01
sg34
I00
sg79
F23.960177
sbsg568
g0
(g570
g2
Ntp574
Rp575
(dp576
g24
I00
sg33
I01
sg34
I00
sg79
F-3.178648
sbsg569
g0
(g570
g2
Ntp577
Rp578
(dp579
g24
I00
sg33
I01
sg34
I00
sg79
F16.0
sbsbag0
(g208
g2
Ntp580
Rp581
(dp582
g24
I00
sg33
I01
sg34
I00
sg21
(lp583
g567
ag568
ag569
asg25
Nsg567
g0
(g570
g2
Ntp584
Rp585
(dp586
g24
I00
sg33
I01
sg34
I00
sg79
F11.977461
sbsg568
g0
(g570
g2
Ntp587
Rp588
(dp589
g24
I00
sg33
I01
sg34
I00
sg79
F-1.5610227
sbsg569
g0
(g570
g2
Ntp590
Rp591
(dp592
g24
I00
sg33
I01
sg34
I00
sg79
F10.0
sbsbag0
(g208
g2
Ntp593
Rp594
(dp595
g24
I00
sg33
I01
sg34
I00
sg21
(lp596
g567
ag568
ag569
asg25
Nsg567
g0
(g570
g2
Ntp597
Rp598
(dp599
g24
I00
sg33
I01
sg34
I00
sg79
F9.109694
sbsg568
g0
(g570
g2
Ntp600
Rp601
(dp602
g24
I00
sg33
I01
sg34
I00
sg79
F-1.075824
sbsg569
g0
(g570
g2
Ntp603
Rp604
(dp605
g24
I00
sg33
I01
sg34
I00
sg79
F6.25
sbsbatp606
Rp607
(dp608
g24
I00
sg33
I01
sg34
I00
sg35
I1
sbsg557
g0
(g523
g27
(lp609
g0
(g208
g2
Ntp610
Rp611
(dp612
g24
I00
sg33
I01
sg34
I00
sg21
(lp613
Vcap
p614
aVtspar0
p615
aVtspar1
p616
aVtspar2
p617
aVtspar0_siPM
p618
aVtspar1_siPM
p619
aVtspar2_siPM
p620
asg25
Nsg614
g0
(g570
g2
Ntp621
Rp622
(dp623
g24
I00
sg33
I01
sg34
I00
sg79
F6.0
sbsg615
g0
(g570
g2
Ntp624
Rp625
(dp626
g24
I00
sg33
I01
sg34
I00
sg79
F12.2999
sbsg616
g0
(g570
g2
Ntp627
Rp628
(dp629
g24
I00
sg33
I01
sg34
I00
sg79
F-2.19142
sbsg617
g0
(g570
g2
Ntp630
Rp631
(dp632
g24
I00
sg33
I01
sg34
I00
sg79
F0.0
sbsg618
g0
(g570
g2
Ntp633
Rp634
(dp635
g24
I00
sg33
I01
sg34
I00
sg79
F0.0
sbsg619
g0
(g570
g2
Ntp636
Rp637
(dp638
g24
I00
sg33
I01
sg34
I00
sg79
F0.0
sbsg620
g0
(g570
g2
Ntp639
Rp640
(dp641
g24
I00
sg33
I01
sg34
I00
sg79
F0.0
sbsbag0
(g208
g2
Ntp642
Rp643
(dp644
g24
I00
sg33
I01
sg34
I00
sg21
(lp645
g614
ag615
ag616
ag617
ag618
ag619
ag620
asg25
Nsg614
g0
(g570
g2
Ntp646
Rp647
(dp648
g24
I00
sg33
I01
sg34
I00
sg79
F6.0
sbsg615
g0
(g570
g2
Ntp649
Rp650
(dp651
g24
I00
sg33
I01
sg34
I00
sg79
F15.5
sbsg616
g0
(g570
g2
Ntp652
Rp653
(dp654
g24
I00
sg33
I01
sg34
I00
sg79
F-3.2
sbsg617
g0
(g570
g2
Ntp655
Rp656
(dp657
g24
I00
sg33
I01
sg34
I00
sg79
F32.0
sbsg618
g0
(g570
g2
Ntp658
Rp659
(dp660
g24
I00
sg33
I01
sg34
I00
sg79
F0.0
sbsg619
g0
(g570
g2
Ntp661
Rp662
(dp663
g24
I00
sg33
I01
sg34
I00
sg79
F0.0
sbsg620
g0
(g570
g2
Ntp664
Rp665
(dp666
g24
I00
sg33
I01
sg34
I00
sg79
F0.0
sbsbag0
(g208
g2
Ntp667
Rp668
(dp669
g24
I00
sg33
I01
sg34
I00
sg21
(lp670
g614
ag615
ag616
ag617
ag618
ag619
ag620
asg25
Nsg614
g0
(g570
g2
Ntp671
Rp672
(dp673
g24
I00
sg33
I01
sg34
I00
sg79
F6.0
sbsg615
g0
(g570
g2
Ntp674
Rp675
(dp676
g24
I00
sg33
I01
sg34
I00
sg79
F12.2999
sbsg616
g0
(g570
g2
Ntp677
Rp678
(dp679
g24
I00
sg33
I01
sg34
I00
sg79
F-2.19142
sbsg617
g0
(g570
g2
Ntp680
Rp681
(dp682
g24
I00
sg33
I01
sg34
I00
sg79
F0.0
sbsg618
g0
(g570
g2
Ntp683
Rp684
(dp685
g24
I00
sg33
I01
sg34
I00
sg79
F0.0
sbsg619
g0
(g570
g2
Ntp686
Rp687
(dp688
g24
I00
sg33
I01
sg34
I00
sg79
F0.0
sbsg620
g0
(g570
g2
Ntp689
Rp690
(dp691
g24
I00
sg33
I01
sg34
I00
sg79
F0.0
sbsbag0
(g208
g2
Ntp692
Rp693
(dp694
g24
I00
sg33
I01
sg34
I00
sg21
(lp695
g614
ag615
ag616
ag617
ag618
ag619
ag620
asg25
Nsg614
g0
(g570
g2
Ntp696
Rp697
(dp698
g24
I00
sg33
I01
sg34
I00
sg79
F6.0
sbsg615
g0
(g570
g2
Ntp699
Rp700
(dp701
g24
I00
sg33
I01
sg34
I00
sg79
F12.2999
sbsg616
g0
(g570
g2
Ntp702
Rp703
(dp704
g24
I00
sg33
I01
sg34
I00
sg79
F-2.19142
sbsg617
g0
(g570
g2
Ntp705
Rp706
(dp707
g24
I00
sg33
I01
sg34
I00
sg79
F0.0
sbsg618
g0
(g570
g2
Ntp708
Rp709
(dp710
g24
I00
sg33
I01
sg34
I00
sg79
F0.0
sbsg619
g0
(g570
g2
Ntp711
Rp712
(dp713
g24
I00
sg33
I01
sg34
I00
sg79
F0.0
sbsg620
g0
(g570
g2
Ntp714
Rp715
(dp716
g24
I00
sg33
I01
sg34
I00
sg79
F0.0
sbsbatp717
Rp718
(dp719
g24
I00
sg33
I01
sg34
I00
sg35
I1
sbsg36
V/cvmfs/cms.cern.ch/slc7_amd64_gcc10/cms/cmssw/CMSSW_12_4_2/python/CalibCalorimetry/HcalPlugins/HcalTimeSlew_cff.py
p720
sg38
I3
sg130
g550
sbsVes_hardcode
p721
g0
(g448
g2
Ntp722
Rp723
(dp724
g19
VHcalHardcodeCalibrations
p725
sg21
(lp726
g480
aViLumi
p727
aVHBRecalibration
p728
aVHBreCalibCutoff
p729
aVHBmeanenergies
p730
aVHERecalibration
p731
aVHEreCalibCutoff
p732
aVHEmeanenergies
p733
aVHFRecalibration
p734
aVHFRecalParameterBlock
p735
aVGainWidthsForTrigPrims
p736
aVuseHBUpgrade
p737
aVuseHEUpgrade
p738
aVuseHFUpgrade
p739
aVuseHOUpgrade
p740
aVtestHFQIE10
p741
aVtestHEPlan1
p742
aVkillHE
p743
aVuseLayer0Weight
p744
aVuseIeta18depth1
p745
aVhb
p746
aVhe
p747
aVhf
p748
aVho
p749
aVhbUpgrade
p750
aVheUpgrade
p751
aVhfUpgrade
p752
aVSiPMCharacteristics
p753
asg24
I00
sg25
Nsg480
g0
(g26
g27
(lp754
VGainWidths
p755
atp756
Rp757
(dp758
g24
I00
sg33
I00
sg34
I00
sg35
I1
sbsg34
I00
sg727
g0
(g570
g2
Ntp759
Rp760
(dp761
g24
I00
sg33
I01
sg34
I00
sg79
F-1.0
sbsg728
g0
(g75
g2
Ntp762
Rp763
(dp764
g24
I00
sg33
I01
sg34
I00
sg79
I00
sbsg729
g0
(g570
g2
Ntp765
Rp766
(dp767
g24
I00
sg33
I01
sg34
I00
sg79
F20.0
sbsg730
g0
(cFWCore.ParameterSet.Types
FileInPath
p768
g2
Ntp769
Rp770
(dp771
g24
I00
sg33
I01
sg34
I00
sg79
VCalibCalorimetry/HcalPlugins/data/meanenergiesHB.txt
p772
sbsg731
g0
(g75
g2
Ntp773
Rp774
(dp775
g24
I00
sg33
I01
sg34
I00
sg79
I00
sbsg732
g0
(g570
g2
Ntp776
Rp777
(dp778
g24
I00
sg33
I01
sg34
I00
sg79
F20.0
sbsg733
g0
(g768
g2
Ntp779
Rp780
(dp781
g24
I00
sg33
I01
sg34
I00
sg79
VCalibCalorimetry/HcalPlugins/data/meanenergiesHE.txt
p782
sbsg734
g0
(g75
g2
Ntp783
Rp784
(dp785
g24
I00
sg33
I01
sg34
I00
sg79
I00
sbsg735
g0
(g208
g2
Ntp786
Rp787
(dp788
g24
I00
sg33
I01
sg34
I00
sg21
(lp789
VHFdepthOneParameterA
p790
aVHFdepthOneParameterB
p791
aVHFdepthTwoParameterA
p792
aVHFdepthTwoParameterB
p793
asg25
Nsg790
g0
(cFWCore.ParameterSet.Types
vdouble
p794
g27
(lp795
F0.004123
aF0.00602
aF0.008201
aF0.010489
aF0.013379
aF0.016997
aF0.021464
aF0.027371
aF0.034195
aF0.044807
aF0.058939
aF0.125497
atp796
Rp797
(dp798
g24
I00
sg33
I01
sg34
I00
sbsg791
g0
(g794
g27
(lp799
F-4e-06
aF-2e-06
aF0.0
aF4e-06
aF1.5e-05
aF2.6e-05
aF6.3e-05
aF8.4e-05
aF0.00016
aF0.000107
aF0.000425
aF0.000209
atp800
Rp801
(dp802
g24
I00
sg33
I01
sg34
I00
sbsg792
g0
(g794
g27
(lp803
F0.002861
aF0.004168
aF0.0064
aF0.008388
aF0.011601
aF0.014425
aF0.018633
aF0.023232
aF0.028274
aF0.035447
aF0.051579
aF0.086593
atp804
Rp805
(dp806
g24
I00
sg33
I01
sg34
I00
sbsg793
g0
(g794
g27
(lp807
F-2e-06
aF-0.0
aF-7e-06
aF-6e-06
aF-2e-06
aF1e-06
aF1.9e-05
aF3.1e-05
aF6.7e-05
aF1.2e-05
aF0.000157
aF-3e-06
atp808
Rp809
(dp810
g24
I00
sg33
I01
sg34
I00
sbsg130
g735
sbsg736
g0
(g75
g2
Ntp811
Rp812
(dp813
g24
I00
sg33
I01
sg34
I00
sg79
I00
sbsg737
g0
(g75
g2
Ntp814
Rp815
(dp816
g24
I00
sg33
I01
sg34
I00
sg79
I00
sbsg738
g0
(g75
g2
Ntp817
Rp818
(dp819
g24
I00
sg33
I01
sg34
I00
sg79
I00
sbsg739
g0
(g75
g2
Ntp820
Rp821
(dp822
g24
I00
sg33
I01
sg34
I00
sg79
I00
sbsg740
g0
(g75
g2
Ntp823
Rp824
(dp825
g24
I00
sg33
I01
sg34
I00
sg79
I01
sbsg741
g0
(g75
g2
Ntp826
Rp827
(dp828
g24
I00
sg33
I01
sg34
I00
sg79
I00
sbsg742
g0
(g75
g2
Ntp829
Rp830
(dp831
g24
I00
sg33
I01
sg34
I00
sg79
I00
sbsg743
g0
(g75
g2
Ntp832
Rp833
(dp834
g24
I00
sg33
I01
sg34
I00
sg79
I00
sbsg744
g0
(g75
g2
Ntp835
Rp836
(dp837
g24
I00
sg33
I01
sg34
I00
sg79
I00
sbsg745
g0
(g75
g2
Ntp838
Rp839
(dp840
g24
I00
sg33
I01
sg34
I00
sg79
I01
sbsg746
g0
(g208
g2
Ntp841
Rp842
(dp843
g24
I00
sg33
I01
sg34
I00
sg21
(lp844
Vpedestal
p845
aVpedestalWidth
p846
aVgain
p847
aVgainWidth
p848
aVzsThreshold
p849
aVqieType
p850
aVqieOffset
p851
aVqieSlope
p852
aVmcShape
p853
aVrecoShape
p854
aVphotoelectronsToAnalog
p855
aVdarkCurrent
p856
aVnoiseCorrelation
p857
aVdoRadiationDamage
p858
asg25
Nsg845
g0
(g570
g2
Ntp859
Rp860
(dp861
g24
I00
sg33
I01
sg34
I00
sg79
F3.285
sbsg846
g0
(g570
g2
Ntp862
Rp863
(dp864
g24
I00
sg33
I01
sg34
I00
sg79
F0.809
sbsg847
g0
(g794
g27
(lp865
F0.19
atp866
Rp867
(dp868
g24
I00
sg33
I01
sg34
I00
sbsg848
g0
(g794
g27
(lp869
F0.0
atp870
Rp871
(dp872
g24
I00
sg33
I01
sg34
I00
sbsg849
g0
(g216
g2
Ntp873
Rp874
(dp875
g24
I00
sg33
I01
sg34
I00
sg79
I8
sbsg850
g0
(g216
g2
Ntp876
Rp877
(dp878
g24
I00
sg33
I01
sg34
I00
sg79
I0
sbsg851
g0
(g794
g27
(lp879
F-0.49
aF1.8
aF7.2
aF37.9
atp880
Rp881
(dp882
g24
I00
sg33
I01
sg34
I00
sbsg852
g0
(g794
g27
(lp883
F0.912
aF0.917
aF0.922
aF0.923
atp884
Rp885
(dp886
g24
I00
sg33
I01
sg34
I00
sbsg853
g0
(g216
g2
Ntp887
Rp888
(dp889
g24
I00
sg33
I01
sg34
I00
sg79
I125
sbsg854
g0
(g216
g2
Ntp890
Rp891
(dp892
g24
I00
sg33
I01
sg34
I00
sg79
I105
sbsg855
g0
(g570
g2
Ntp893
Rp894
(dp895
g24
I00
sg33
I01
sg34
I00
sg79
F0.3305
sbsg856
g0
(g794
g27
(lp896
F0.0
atp897
Rp898
(dp899
g24
I00
sg33
I01
sg34
I00
sbsg857
g0
(g794
g27
(lp900
F0.0
atp901
Rp902
(dp903
g24
I00
sg33
I01
sg34
I00
sbsg858
g0
(g75
g2
Ntp904
Rp905
(dp906
g24
I00
sg33
I01
sg34
I00
sg79
I00
sbsbsg747
g0
(g208
g2
Ntp907
Rp908
(dp909
g24
I00
sg33
I01
sg34
I00
sg21
(lp910
g845
ag846
ag847
ag848
ag849
ag850
ag851
ag852
ag853
ag854
ag855
ag856
ag857
ag858
asg25
Nsg845
g0
(g570
g2
Ntp911
Rp912
(dp913
g24
I00
sg33
I01
sg34
I00
sg79
F3.163
sbsg846
g0
(g570
g2
Ntp914
Rp915
(dp916
g24
I00
sg33
I01
sg34
I00
sg79
F0.9698
sbsg847
g0
(g794
g27
(lp917
F0.23
atp918
Rp919
(dp920
g24
I00
sg33
I01
sg34
I00
sbsg848
g0
(g794
g27
(lp921
I0
atp922
Rp923
(dp924
g24
I00
sg33
I01
sg34
I00
sbsg849
g0
(g216
g2
Ntp925
Rp926
(dp927
g24
I00
sg33
I01
sg34
I00
sg79
I9
sbsg850
g0
(g216
g2
Ntp928
Rp929
(dp930
g24
I00
sg33
I01
sg34
I00
sg79
I0
sbsg851
g0
(g794
g27
(lp931
F-0.38
aF2.0
aF7.6
aF39.6
atp932
Rp933
(dp934
g24
I00
sg33
I01
sg34
I00
sbsg852
g0
(g794
g27
(lp935
F0.912
aF0.916
aF0.92
aF0.922
atp936
Rp937
(dp938
g24
I00
sg33
I01
sg34
I00
sbsg853
g0
(g216
g2
Ntp939
Rp940
(dp941
g24
I00
sg33
I01
sg34
I00
sg79
I125
sbsg854
g0
(g216
g2
Ntp942
Rp943
(dp944
g24
I00
sg33
I01
sg34
I00
sg79
I105
sbsg855
g0
(g570
g2
Ntp945
Rp946
(dp947
g24
I00
sg33
I01
sg34
I00
sg79
F0.3305
sbsg856
g0
(g794
g27
(lp948
F0.0
atp949
Rp950
(dp951
g24
I00
sg33
I01
sg34
I00
sbsg857
g0
(g794
g27
(lp952
F0.0
atp953
Rp954
(dp955
g24
I00
sg33
I01
sg34
I00
sbsg858
g0
(g75
g2
Ntp956
Rp957
(dp958
g24
I00
sg33
I01
sg34
I00
sg79
I00
sbsbsg748
g0
(g208
g2
Ntp959
Rp960
(dp961
g24
I00
sg33
I01
sg34
I00
sg21
(lp962
g845
ag846
ag847
ag848
ag849
ag850
ag851
ag852
ag853
ag854
ag855
ag856
ag857
ag858
asg25
Nsg845
g0
(g570
g2
Ntp963
Rp964
(dp965
g24
I00
sg33
I01
sg34
I00
sg79
F9.354
sbsg846
g0
(g570
g2
Ntp966
Rp967
(dp968
g24
I00
sg33
I01
sg34
I00
sg79
F2.516
sbsg847
g0
(g794
g27
(lp969
F0.14
aF0.135
atp970
Rp971
(dp972
g24
I00
sg33
I01
sg34
I00
sbsg848
g0
(g794
g27
(lp973
F0.0
aF0.0
atp974
Rp975
(dp976
g24
I00
sg33
I01
sg34
I00
sbsg849
g0
(g216
g2
Ntp977
Rp978
(dp979
g24
I00
sg33
I01
sg34
I00
sg79
I-9999
sbsg850
g0
(g216
g2
Ntp980
Rp981
(dp982
g24
I00
sg33
I01
sg34
I00
sg79
I0
sbsg851
g0
(g794
g27
(lp983
F-0.87
aF1.4
aF7.8
aF-29.6
atp984
Rp985
(dp986
g24
I00
sg33
I01
sg34
I00
sbsg852
g0
(g794
g27
(lp987
F0.359
aF0.358
aF0.36
aF0.367
atp988
Rp989
(dp990
g24
I00
sg33
I01
sg34
I00
sbsg853
g0
(g216
g2
Ntp991
Rp992
(dp993
g24
I00
sg33
I01
sg34
I00
sg79
I301
sbsg854
g0
(g216
g2
Ntp994
Rp995
(dp996
g24
I00
sg33
I01
sg34
I00
sg79
I301
sbsg855
g0
(g570
g2
Ntp997
Rp998
(dp999
g24
I00
sg33
I01
sg34
I00
sg79
F0.0
sbsg856
g0
(g794
g27
(lp1000
F0.0
atp1001
Rp1002
(dp1003
g24
I00
sg33
I01
sg34
I00
sbsg857
g0
(g794
g27
(lp1004
F0.0
atp1005
Rp1006
(dp1007
g24
I00
sg33
I01
sg34
I00
sbsg858
g0
(g75
g2
Ntp1008
Rp1009
(dp1010
g24
I00
sg33
I01
sg34
I00
sg79
I00
sbsbsg749
g0
(g208
g2
Ntp1011
Rp1012
(dp1013
g24
I00
sg33
I01
sg34
I00
sg21
(lp1014
g845
ag846
ag847
ag848
ag849
ag850
ag851
ag852
ag853
ag854
ag855
ag856
ag857
ag858
asg25
Nsg845
g0
(g570
g2
Ntp1015
Rp1016
(dp1017
g24
I00
sg33
I01
sg34
I00
sg79
F12.06
sbsg846
g0
(g570
g2
Ntp1018
Rp1019
(dp1020
g24
I00
sg33
I01
sg34
I00
sg79
F0.6285
sbsg847
g0
(g794
g27
(lp1021
F0.006
aF0.0087
atp1022
Rp1023
(dp1024
g24
I00
sg33
I01
sg34
I00
sbsg848
g0
(g794
g27
(lp1025
F0.0
aF0.0
atp1026
Rp1027
(dp1028
g24
I00
sg33
I01
sg34
I00
sbsg849
g0
(g216
g2
Ntp1029
Rp1030
(dp1031
g24
I00
sg33
I01
sg34
I00
sg79
I24
sbsg850
g0
(g216
g2
Ntp1032
Rp1033
(dp1034
g24
I00
sg33
I01
sg34
I00
sg79
I0
sbsg851
g0
(g794
g27
(lp1035
F-0.44
aF1.4
aF7.1
aF38.5
atp1036
Rp1037
(dp1038
g24
I00
sg33
I01
sg34
I00
sbsg852
g0
(g794
g27
(lp1039
F0.907
aF0.915
aF0.92
aF0.921
atp1040
Rp1041
(dp1042
g24
I00
sg33
I01
sg34
I00
sbsg853
g0
(g216
g2
Ntp1043
Rp1044
(dp1045
g24
I00
sg33
I01
sg34
I00
sg79
I201
sbsg854
g0
(g216
g2
Ntp1046
Rp1047
(dp1048
g24
I00
sg33
I01
sg34
I00
sg79
I201
sbsg855
g0
(g570
g2
Ntp1049
Rp1050
(dp1051
g24
I00
sg33
I01
sg34
I00
sg79
F4.0
sbsg856
g0
(g794
g27
(lp1052
F0.0
atp1053
Rp1054
(dp1055
g24
I00
sg33
I01
sg34
I00
sbsg857
g0
(g794
g27
(lp1056
F0.0
atp1057
Rp1058
(dp1059
g24
I00
sg33
I01
sg34
I00
sbsg858
g0
(g75
g2
Ntp1060
Rp1061
(dp1062
g24
I00
sg33
I01
sg34
I00
sg79
I00
sbsbsg750
g0
(g208
g2
Ntp1063
Rp1064
(dp1065
g24
I00
sg33
I01
sg34
I00
sg21
(lp1066
g845
ag846
ag847
ag848
ag849
ag850
ag851
ag852
ag853
ag854
ag855
ag856
ag857
ag858
aVradiationDamage
p1067
asg25
Nsg845
g0
(g570
g2
Ntp1068
Rp1069
(dp1070
g24
I00
sg33
I01
sg34
I00
sg79
F17.3
sbsg846
g0
(g570
g2
Ntp1071
Rp1072
(dp1073
g24
I00
sg33
I01
sg34
I00
sg79
F1.5
sbsg847
g0
(g794
g27
(lp1074
F0.0006252
atp1075
Rp1076
(dp1077
g24
I00
sg33
I01
sg34
I00
sbsg848
g0
(g794
g27
(lp1078
I0
atp1079
Rp1080
(dp1081
g24
I00
sg33
I01
sg34
I00
sbsg849
g0
(g216
g2
Ntp1082
Rp1083
(dp1084
g24
I00
sg33
I01
sg34
I00
sg79
I16
sbsg850
g0
(g216
g2
Ntp1085
Rp1086
(dp1087
g24
I00
sg33
I01
sg34
I00
sg79
I2
sbsg851
g0
(g794
g27
(lp1088
F0.0
aF0.0
aF0.0
aF0.0
atp1089
Rp1090
(dp1091
g24
I00
sg33
I01
sg34
I00
sbsg852
g0
(g794
g27
(lp1092
F0.05376
aF0.05376
aF0.05376
aF0.05376
atp1093
Rp1094
(dp1095
g24
I00
sg33
I01
sg34
I00
sbsg853
g0
(g216
g2
Ntp1096
Rp1097
(dp1098
g24
I00
sg33
I01
sg34
I00
sg79
I206
sbsg854
g0
(g216
g2
Ntp1099
Rp1100
(dp1101
g24
I00
sg33
I01
sg34
I00
sg79
I208
sbsg855
g0
(g570
g2
Ntp1102
Rp1103
(dp1104
g24
I00
sg33
I01
sg34
I00
sg79
F40.0
sbsg856
g0
(g794
g27
(lp1105
F0.01
aF0.015
atp1106
Rp1107
(dp1108
g24
I00
sg33
I01
sg34
I00
sbsg857
g0
(g794
g27
(lp1109
F0.26
aF0.254
atp1110
Rp1111
(dp1112
g24
I00
sg33
I01
sg34
I00
sbsg858
g0
(g75
g2
Ntp1113
Rp1114
(dp1115
g24
I00
sg33
I01
sg34
I00
sg79
I01
sbsg1067
g0
(g208
g2
Ntp1116
Rp1117
(dp1118
g24
I00
sg33
I01
sg34
I00
sg21
(lp1119
VtemperatureBase
p1120
aVtemperatureNew
p1121
aVintlumiOffset
p1122
aVdepVsTemp
p1123
aVintlumiToNeutrons
p1124
aVdepVsNeutrons
p1125
asg25
Nsg1120
g0
(g570
g2
Ntp1126
Rp1127
(dp1128
g24
I00
sg33
I01
sg34
I00
sg79
I20
sbsg1121
g0
(g570
g2
Ntp1129
Rp1130
(dp1131
g24
I00
sg33
I01
sg34
I00
sg79
I-5
sbsg1122
g0
(g570
g2
Ntp1132
Rp1133
(dp1134
g24
I00
sg33
I01
sg34
I00
sg79
I150
sbsg1123
g0
(g570
g2
Ntp1135
Rp1136
(dp1137
g24
I00
sg33
I01
sg34
I00
sg79
F0.0631
sbsg1124
g0
(g570
g2
Ntp1138
Rp1139
(dp1140
g24
I00
sg33
I01
sg34
I00
sg79
F367000000.0
sbsg1125
g0
(g794
g27
(lp1141
F5.543e-10
aF8.012e-10
atp1142
Rp1143
(dp1144
g24
I00
sg33
I01
sg34
I00
sbsbsbsg751
g0
(g208
g2
Ntp1145
Rp1146
(dp1147
g24
I00
sg33
I01
sg34
I00
sg21
(lp1148
g845
ag846
ag847
ag848
ag849
ag850
ag851
ag852
ag853
ag854
ag855
ag856
ag857
ag858
ag1067
asg25
Nsg845
g0
(g570
g2
Ntp1149
Rp1150
(dp1151
g24
I00
sg33
I01
sg34
I00
sg79
F17.3
sbsg846
g0
(g570
g2
Ntp1152
Rp1153
(dp1154
g24
I00
sg33
I01
sg34
I00
sg79
F1.5
sbsg847
g0
(g794
g27
(lp1155
F0.0006252
atp1156
Rp1157
(dp1158
g24
I00
sg33
I01
sg34
I00
sbsg848
g0
(g794
g27
(lp1159
I0
atp1160
Rp1161
(dp1162
g24
I00
sg33
I01
sg34
I00
sbsg849
g0
(g216
g2
Ntp1163
Rp1164
(dp1165
g24
I00
sg33
I01
sg34
I00
sg79
I16
sbsg850
g0
(g216
g2
Ntp1166
Rp1167
(dp1168
g24
I00
sg33
I01
sg34
I00
sg79
I2
sbsg851
g0
(g794
g27
(lp1169
F0.0
aF0.0
aF0.0
aF0.0
atp1170
Rp1171
(dp1172
g24
I00
sg33
I01
sg34
I00
sbsg852
g0
(g794
g27
(lp1173
F0.05376
aF0.05376
aF0.05376
aF0.05376
atp1174
Rp1175
(dp1176
g24
I00
sg33
I01
sg34
I00
sbsg853
g0
(g216
g2
Ntp1177
Rp1178
(dp1179
g24
I00
sg33
I01
sg34
I00
sg79
I206
sbsg854
g0
(g216
g2
Ntp1180
Rp1181
(dp1182
g24
I00
sg33
I01
sg34
I00
sg79
I208
sbsg855
g0
(g570
g2
Ntp1183
Rp1184
(dp1185
g24
I00
sg33
I01
sg34
I00
sg79
F40.0
sbsg856
g0
(g794
g27
(lp1186
F0.01
aF0.015
atp1187
Rp1188
(dp1189
g24
I00
sg33
I01
sg34
I00
sbsg857
g0
(g794
g27
(lp1190
F0.26
aF0.254
atp1191
Rp1192
(dp1193
g24
I00
sg33
I01
sg34
I00
sbsg858
g0
(g75
g2
Ntp1194
Rp1195
(dp1196
g24
I00
sg33
I01
sg34
I00
sg79
I01
sbsg1067
g0
(g208
g2
Ntp1197
Rp1198
(dp1199
g24
I00
sg33
I01
sg34
I00
sg21
(lp1200
g1120
ag1121
ag1122
ag1123
ag1124
ag1125
asg25
Nsg1120
g0
(g570
g2
Ntp1201
Rp1202
(dp1203
g24
I00
sg33
I01
sg34
I00
sg79
I20
sbsg1121
g0
(g570
g2
Ntp1204
Rp1205
(dp1206
g24
I00
sg33
I01
sg34
I00
sg79
I5
sbsg1122
g0
(g570
g2
Ntp1207
Rp1208
(dp1209
g24
I00
sg33
I01
sg34
I00
sg79
I75
sbsg1123
g0
(g570
g2
Ntp1210
Rp1211
(dp1212
g24
I00
sg33
I01
sg34
I00
sg79
F0.0631
sbsg1124
g0
(g570
g2
Ntp1213
Rp1214
(dp1215
g24
I00
sg33
I01
sg34
I00
sg79
F29200000.0
sbsg1125
g0
(g794
g27
(lp1216
F5.543e-10
aF8.012e-10
atp1217
Rp1218
(dp1219
g24
I00
sg33
I01
sg34
I00
sbsbsbsg752
g0
(g208
g2
Ntp1220
Rp1221
(dp1222
g24
I00
sg33
I01
sg34
I00
sg21
(lp1223
g845
ag846
ag847
ag848
ag849
ag850
ag851
ag852
ag853
ag854
ag855
ag856
ag857
ag858
asg25
Nsg845
g0
(g570
g2
Ntp1224
Rp1225
(dp1226
g24
I00
sg33
I01
sg34
I00
sg79
F13.33
sbsg846
g0
(g570
g2
Ntp1227
Rp1228
(dp1229
g24
I00
sg33
I01
sg34
I00
sg79
F3.33
sbsg847
g0
(g794
g27
(lp1230
F0.14
aF0.135
atp1231
Rp1232
(dp1233
g24
I00
sg33
I01
sg34
I00
sbsg848
g0
(g794
g27
(lp1234
F0.0
aF0.0
atp1235
Rp1236
(dp1237
g24
I00
sg33
I01
sg34
I00
sbsg849
g0
(g216
g2
Ntp1238
Rp1239
(dp1240
g24
I00
sg33
I01
sg34
I00
sg79
I-9999
sbsg850
g0
(g216
g2
Ntp1241
Rp1242
(dp1243
g24
I00
sg33
I01
sg34
I00
sg79
I1
sbsg851
g0
(g794
g27
(lp1244
F0.0697
aF-0.7405
aF12.38
aF-671.9
atp1245
Rp1246
(dp1247
g24
I00
sg33
I01
sg34
I00
sbsg852
g0
(g794
g27
(lp1248
F0.297
aF0.298
aF0.298
aF0.313
atp1249
Rp1250
(dp1251
g24
I00
sg33
I01
sg34
I00
sbsg853
g0
(g216
g2
Ntp1252
Rp1253
(dp1254
g24
I00
sg33
I01
sg34
I00
sg79
I301
sbsg854
g0
(g216
g2
Ntp1255
Rp1256
(dp1257
g24
I00
sg33
I01
sg34
I00
sg79
I301
sbsg855
g0
(g570
g2
Ntp1258
Rp1259
(dp1260
g24
I00
sg33
I01
sg34
I00
sg79
F0.0
sbsg856
g0
(g794
g27
(lp1261
F0.0
atp1262
Rp1263
(dp1264
g24
I00
sg33
I01
sg34
I00
sbsg857
g0
(g794
g27
(lp1265
F0.0
atp1266
Rp1267
(dp1268
g24
I00
sg33
I01
sg34
I00
sbsg858
g0
(g75
g2
Ntp1269
Rp1270
(dp1271
g24
I00
sg33
I01
sg34
I00
sg79
I00
sbsbsg753
g0
(g523
g27
(lp1272
g0
(g208
g2
Ntp1273
Rp1274
(dp1275
g24
I00
sg33
I01
sg34
I00
sg21
(lp1276
Vpixels
p1277
aVcrosstalk
p1278
aVnonlin1
p1279
aVnonlin2
p1280
aVnonlin3
p1281
asg25
Nsg1277
g0
(g216
g2
Ntp1282
Rp1283
(dp1284
g24
I00
sg33
I01
sg34
I00
sg79
I36000
sbsg1278
g0
(g570
g2
Ntp1285
Rp1286
(dp1287
g24
I00
sg33
I01
sg34
I00
sg79
F0.0
sbsg1279
g0
(g570
g2
Ntp1288
Rp1289
(dp1290
g24
I00
sg33
I01
sg34
I00
sg79
F1.0
sbsg1280
g0
(g570
g2
Ntp1291
Rp1292
(dp1293
g24
I00
sg33
I01
sg34
I00
sg79
F0.0
sbsg1281
g0
(g570
g2
Ntp1294
Rp1295
(dp1296
g24
I00
sg33
I01
sg34
I00
sg79
F0.0
sbsbag0
(g208
g2
Ntp1297
Rp1298
(dp1299
g24
I00
sg33
I01
sg34
I00
sg21
(lp1300
g1277
ag1278
ag1279
ag1280
ag1281
asg25
Nsg1277
g0
(g216
g2
Ntp1301
Rp1302
(dp1303
g24
I00
sg33
I01
sg34
I00
sg79
I2500
sbsg1278
g0
(g570
g2
Ntp1304
Rp1305
(dp1306
g24
I00
sg33
I01
sg34
I00
sg79
F0.0
sbsg1279
g0
(g570
g2
Ntp1307
Rp1308
(dp1309
g24
I00
sg33
I01
sg34
I00
sg79
F1.0
sbsg1280
g0
(g570
g2
Ntp1310
Rp1311
(dp1312
g24
I00
sg33
I01
sg34
I00
sg79
F0.0
sbsg1281
g0
(g570
g2
Ntp1313
Rp1314
(dp1315
g24
I00
sg33
I01
sg34
I00
sg79
F0.0
sbsbag0
(g208
g2
Ntp1316
Rp1317
(dp1318
g24
I00
sg33
I01
sg34
I00
sg21
(lp1319
g1277
ag1278
ag1279
ag1280
ag1281
asg25
Nsg1277
g0
(g216
g2
Ntp1320
Rp1321
(dp1322
g24
I00
sg33
I01
sg34
I00
sg79
I27370
sbsg1278
g0
(g570
g2
Ntp1323
Rp1324
(dp1325
g24
I00
sg33
I01
sg34
I00
sg79
F0.17
sbsg1279
g0
(g570
g2
Ntp1326
Rp1327
(dp1328
g24
I00
sg33
I01
sg34
I00
sg79
F1.00985
sbsg1280
g0
(g570
g2
Ntp1329
Rp1330
(dp1331
g24
I00
sg33
I01
sg34
I00
sg79
F7.84089e-06
sbsg1281
g0
(g570
g2
Ntp1332
Rp1333
(dp1334
g24
I00
sg33
I01
sg34
I00
sg79
F2.86282e-10
sbsbag0
(g208
g2
Ntp1335
Rp1336
(dp1337
g24
I00
sg33
I01
sg34
I00
sg21
(lp1338
g1277
ag1278
ag1279
ag1280
ag1281
asg25
Nsg1277
g0
(g216
g2
Ntp1339
Rp1340
(dp1341
g24
I00
sg33
I01
sg34
I00
sg79
I38018
sbsg1278
g0
(g570
g2
Ntp1342
Rp1343
(dp1344
g24
I00
sg33
I01
sg34
I00
sg79
F0.196
sbsg1279
g0
(g570
g2
Ntp1345
Rp1346
(dp1347
g24
I00
sg33
I01
sg34
I00
sg79
F1.00546
sbsg1280
g0
(g570
g2
Ntp1348
Rp1349
(dp1350
g24
I00
sg33
I01
sg34
I00
sg79
F6.40239e-06
sbsg1281
g0
(g570
g2
Ntp1351
Rp1352
(dp1353
g24
I00
sg33
I01
sg34
I00
sg79
F1.27011e-10
sbsbag0
(g208
g2
Ntp1354
Rp1355
(dp1356
g24
I00
sg33
I01
sg34
I00
sg21
(lp1357
g1277
ag1278
ag1279
ag1280
ag1281
asg25
Nsg1277
g0
(g216
g2
Ntp1358
Rp1359
(dp1360
g24
I00
sg33
I01
sg34
I00
sg79
I27370
sbsg1278
g0
(g570
g2
Ntp1361
Rp1362
(dp1363
g24
I00
sg33
I01
sg34
I00
sg79
F0.17
sbsg1279
g0
(g570
g2
Ntp1364
Rp1365
(dp1366
g24
I00
sg33
I01
sg34
I00
sg79
F1.00985
sbsg1280
g0
(g570
g2
Ntp1367
Rp1368
(dp1369
g24
I00
sg33
I01
sg34
I00
sg79
F7.84089e-06
sbsg1281
g0
(g570
g2
Ntp1370
Rp1371
(dp1372
g24
I00
sg33
I01
sg34
I00
sg79
F2.86282e-10
sbsbag0
(g208
g2
Ntp1373
Rp1374
(dp1375
g24
I00
sg33
I01
sg34
I00
sg21
(lp1376
g1277
ag1278
ag1279
ag1280
ag1281
asg25
Nsg1277
g0
(g216
g2
Ntp1377
Rp1378
(dp1379
g24
I00
sg33
I01
sg34
I00
sg79
I38018
sbsg1278
g0
(g570
g2
Ntp1380
Rp1381
(dp1382
g24
I00
sg33
I01
sg34
I00
sg79
F0.196
sbsg1279
g0
(g570
g2
Ntp1383
Rp1384
(dp1385
g24
I00
sg33
I01
sg34
I00
sg79
F1.00546
sbsg1280
g0
(g570
g2
Ntp1386
Rp1387
(dp1388
g24
I00
sg33
I01
sg34
I00
sg79
F6.40239e-06
sbsg1281
g0
(g570
g2
Ntp1389
Rp1390
(dp1391
g24
I00
sg33
I01
sg34
I00
sg79
F1.27011e-10
sbsbag0
(g208
g2
Ntp1392
Rp1393
(dp1394
g24
I00
sg33
I01
sg34
I00
sg21
(lp1395
g1277
ag1278
ag1279
ag1280
ag1281
asg25
Nsg1277
g0
(g216
g2
Ntp1396
Rp1397
(dp1398
g24
I00
sg33
I01
sg34
I00
sg79
I0
sbsg1278
g0
(g570
g2
Ntp1399
Rp1400
(dp1401
g24
I00
sg33
I01
sg34
I00
sg79
F0.0
sbsg1279
g0
(g570
g2
Ntp1402
Rp1403
(dp1404
g24
I00
sg33
I01
sg34
I00
sg79
F1.0
sbsg1280
g0
(g570
g2
Ntp1405
Rp1406
(dp1407
g24
I00
sg33
I01
sg34
I00
sg79
F0.0
sbsg1281
g0
(g570
g2
Ntp1408
Rp1409
(dp1410
g24
I00
sg33
I01
sg34
I00
sg79
F0.0
sbsbatp1411
Rp1412
(dp1413
g24
I00
sg33
I01
sg34
I00
sg35
I1
sbsg36
V/cvmfs/cms.cern.ch/slc7_amd64_gcc10/cms/cmssw/CMSSW_12_4_2/python/CalibCalorimetry/HcalPlugins/Hcal_Conditions_forGlobalTag_cff.py
p1414
sg38
I16
sg130
g721
sbssV_Process__esproducers
p1415
(dp1416
VTransientTrackBuilderESProducer
p1417
g0
(cFWCore.ParameterSet.Modules
ESProducer
p1418
g2
Ntp1419
Rp1420
(dp1421
g19
g1417
sg21
(lp1422
VComponentName
p1423
asg24
I00
sg25
Nsg1423
g0
(g272
g2
Ntp1424
Rp1425
(dp1426
g24
I00
sg33
I01
sg34
I00
sg79
VTransientTrackBuilder
p1427
sbsg34
I00
sg36
g37
sg38
I55
sg130
g1417
sbsVCSCGeometryESModule
p1428
g0
(g1418
g2
Ntp1429
Rp1430
(dp1431
g19
g1428
sg21
(lp1432
VfromDDD
p1433
aVfromDD4hep
p1434
aValignmentsLabel
p1435
ag555
aVuseRealWireGeometry
p1436
aVuseOnlyWiresInME1a
p1437
aVuseGangedStripsInME1a
p1438
aVuseCentreTIOffsets
p1439
aVapplyAlignment
p1440
aVdebugV
p1441
asg24
I00
sg25
Nsg1433
g0
(g75
g2
Ntp1442
Rp1443
(dp1444
g24
I00
sg33
I01
sg34
I00
sg79
I00
sbsg34
I00
sg1434
g0
(g75
g2
Ntp1445
Rp1446
(dp1447
g24
I00
sg33
I01
sg34
I00
sg79
I00
sbsg1435
g0
(g272
g2
Ntp1448
Rp1449
(dp1450
g24
I00
sg33
I01
sg34
I00
sg79
g72
sbsg555
g0
(g272
g2
Ntp1451
Rp1452
(dp1453
g24
I00
sg33
I01
sg34
I00
sg79
g72
sbsg1436
g0
(g75
g2
Ntp1454
Rp1455
(dp1456
g24
I00
sg33
I01
sg34
I00
sg79
I01
sbsg1437
g0
(g75
g2
Ntp1457
Rp1458
(dp1459
g24
I00
sg33
I01
sg34
I00
sg79
I00
sbsg1438
g0
(g75
g2
Ntp1460
Rp1461
(dp1462
g24
I00
sg33
I01
sg34
I00
sg79
I01
sbsg1439
g0
(g75
g2
Ntp1463
Rp1464
(dp1465
g24
I00
sg33
I01
sg34
I00
sg79
I00
sbsg1440
g0
(g75
g2
Ntp1466
Rp1467
(dp1468
g24
I00
sg33
I01
sg34
I00
sg79
I01
sbsg1441
g0
(g75
g2
Ntp1469
Rp1470
(dp1471
g24
I00
sg33
I00
sg34
I00
sg79
I00
sbsg36
g37
sg38
I55
sg130
g1428
sbsVCaloGeometryBuilder
p1472
g0
(g1418
g2
Ntp1473
Rp1474
(dp1475
g19
g1472
sg21
(lp1476
VSelectedCalos
p1477
asg24
I00
sg25
Nsg1477
g0
(g26
g27
(lp1478
VHCAL
p1479
aVZDC
p1480
aVCASTOR
p1481
aVEcalBarrel
p1482
aVEcalEndcap
p1483
aVEcalPreshower
p1484
aVTOWER
p1485
atp1486
Rp1487
(dp1488
g24
I00
sg33
I01
sg34
I00
sg35
I1
sbsg34
I00
sg36
g37
sg38
I55
sg130
g1472
sbsVCaloTopologyBuilder
p1489
g0
(g1418
g2
Ntp1490
Rp1491
(dp1492
g19
g1489
sg21
(lp1493
sg24
I00
sg25
Nsg34
I00
sg36
g37
sg38
I55
sg130
g1489
sbsVCaloTowerGeometryFromDBEP
p1494
g0
(g1418
g2
Ntp1495
Rp1496
(dp1497
g19
g1494
sg21
(lp1498
g1440
asg24
I00
sg25
Nsg1440
g0
(g75
g2
Ntp1499
Rp1500
(dp1501
g24
I00
sg33
I01
sg34
I00
sg79
I00
sbsg34
I00
sg36
g37
sg38
I55
sg130
g1494
sbsVCaloTowerTopologyEP
p1502
g0
(g1418
g2
Ntp1503
Rp1504
(dp1505
g19
g1502
sg21
(lp1506
sg24
I00
sg25
Nsg34
I00
sg36
g37
sg38
I55
sg130
g1502
sbsVCastorGeometryFromDBEP
p1507
g0
(g1418
g2
Ntp1508
Rp1509
(dp1510
g19
g1507
sg21
(lp1511
g1440
asg24
I00
sg25
Nsg1440
g0
(g75
g2
Ntp1512
Rp1513
(dp1514
g24
I00
sg33
I01
sg34
I00
sg79
I00
sbsg34
I00
sg36
g37
sg38
I55
sg130
g1507
sbsVDTGeometryESModule
p1515
g0
(g1418
g2
Ntp1516
Rp1517
(dp1518
g19
g1515
sg21
(lp1519
g1433
ag1434
aVDDDetector
p1520
ag1435
ag555
aVattribute
p1521
aVvalue
p1522
ag1440
asg24
I00
sg25
Nsg1433
g0
(g75
g2
Ntp1523
Rp1524
(dp1525
g24
I00
sg33
I01
sg34
I01
sg79
I00
sbsg34
I01
sg1434
g0
(g75
g2
Ntp1526
Rp1527
(dp1528
g24
I00
sg33
I01
sg34
I00
sg79
I00
sbsg1520
g0
(cFWCore.ParameterSet.Types
ESInputTag
p1529
g2
Ntp1530
Rp1531
(dp1532
g24
I00
sg33
I01
sg34
I00
sV_ESInputTag__moduleLabel
p1533
g72
sV_ESInputTag__data
p1534
g72
sbsg1435
g0
(g272
g2
Ntp1535
Rp1536
(dp1537
g24
I00
sg33
I01
sg34
I00
sg79
g72
sbsg555
g0
(g272
g2
Ntp1538
Rp1539
(dp1540
g24
I00
sg33
I01
sg34
I00
sg79
g72
sbsg1521
g0
(g272
g2
Ntp1541
Rp1542
(dp1543
g24
I00
sg33
I01
sg34
I00
sg79
VMuStructure
p1544
sbsg1522
g0
(g272
g2
Ntp1545
Rp1546
(dp1547
g24
I00
sg33
I01
sg34
I00
sg79
VMuonBarrelDT
p1548
sbsg1440
g0
(g75
g2
Ntp1549
Rp1550
(dp1551
g24
I00
sg33
I01
sg34
I00
sg79
I01
sbsg36
g37
sg38
I55
sg130
g1515
sbsVEcalBarrelGeometryFromDBEP
p1552
g0
(g1418
g2
Ntp1553
Rp1554
(dp1555
g19
g1552
sg21
(lp1556
g1440
asg24
I00
sg25
Nsg1440
g0
(g75
g2
Ntp1557
Rp1558
(dp1559
g24
I00
sg33
I01
sg34
I01
sg79
I01
sbsg34
I01
sg36
g37
sg38
I55
sg130
g1552
sbsVEcalElectronicsMappingBuilder
p1560
g0
(g1418
g2
Ntp1561
Rp1562
(dp1563
g19
g1560
sg21
(lp1564
sg24
I00
sg25
Nsg34
I00
sg36
g37
sg38
I55
sg130
g1560
sbsVEcalEndcapGeometryFromDBEP
p1565
g0
(g1418
g2
Ntp1566
Rp1567
(dp1568
g19
g1565
sg21
(lp1569
g1440
asg24
I00
sg25
Nsg1440
g0
(g75
g2
Ntp1570
Rp1571
(dp1572
g24
I00
sg33
I01
sg34
I01
sg79
I01
sbsg34
I01
sg36
g37
sg38
I55
sg130
g1565
sbsVEcalPreshowerGeometryFromDBEP
p1573
g0
(g1418
g2
Ntp1574
Rp1575
(dp1576
g19
g1573
sg21
(lp1577
g1440
asg24
I00
sg25
Nsg1440
g0
(g75
g2
Ntp1578
Rp1579
(dp1580
g24
I00
sg33
I01
sg34
I01
sg79
I01
sbsg34
I01
sg36
g37
sg38
I55
sg130
g1573
sbsVEcalTrigTowerConstituentsMapBuilder
p1581
g0
(g1418
g2
Ntp1582
Rp1583
(dp1584
g19
g1581
sg21
(lp1585
VMapFile
p1586
asg24
I00
sg25
Nsg1586
g0
(g272
g2
Ntp1587
Rp1588
(dp1589
g24
I00
sg33
I00
sg34
I00
sg79
VGeometry/EcalMapping/data/EndCap_TTMap.txt
p1590
sbsg34
I00
sg36
g37
sg38
I55
sg130
g1581
sbsVGlobalTrackingGeometryESProducer
p1591
g0
(g1418
g2
Ntp1592
Rp1593
(dp1594
g19
g1591
sg21
(lp1595
sg24
I00
sg25
Nsg34
I00
sg36
g37
sg38
I55
sg130
g1591
sbsVHcalAlignmentEP
p1596
g0
(g1418
g2
Ntp1597
Rp1598
(dp1599
g19
g1596
sg21
(lp1600
sg24
I00
sg25
Nsg34
I00
sg36
g37
sg38
I55
sg130
g1596
sbsVHcalGeometryFromDBEP
p1601
g0
(g1418
g2
Ntp1602
Rp1603
(dp1604
g19
g1601
sg21
(lp1605
g1440
asg24
I00
sg25
Nsg1440
g0
(g75
g2
Ntp1606
Rp1607
(dp1608
g24
I00
sg33
I01
sg34
I01
sg79
I01
sbsg34
I01
sg36
g37
sg38
I55
sg130
g1601
sbsVMuonDetLayerGeometryESProducer
p1609
g0
(g1418
g2
Ntp1610
Rp1611
(dp1612
g19
g1609
sg21
(lp1613
sg24
I00
sg25
Nsg34
I00
sg36
g37
sg38
I55
sg130
g1609
sbsVRPCGeometryESModule
p1614
g0
(g1418
g2
Ntp1615
Rp1616
(dp1617
g19
g1614
sg21
(lp1618
g1433
ag1434
asg24
I00
sg25
Nsg1433
g0
(g75
g2
Ntp1619
Rp1620
(dp1621
g24
I00
sg33
I00
sg34
I00
sg79
I00
sbsg34
I00
sg1434
g0
(g75
g2
Ntp1622
Rp1623
(dp1624
g24
I00
sg33
I00
sg34
I00
sg79
I00
sbsg36
g37
sg38
I55
sg130
g1614
sbsVTrackerAdditionalParametersPerDet
p1625
g0
(g1418
g2
Ntp1626
Rp1627
(dp1628
g19
VTrackerAdditionalParametersPerDetESModule
p1629
sg21
(lp1630
g555
asg24
I00
sg25
Nsg555
g0
(g272
g2
Ntp1631
Rp1632
(dp1633
g24
I00
sg33
I01
sg34
I00
sg79
g72
sbsg34
I00
sg36
g37
sg38
I55
sg130
g1625
sbsVTrackerRecoGeometryESProducer
p1634
g0
(g1418
g2
Ntp1635
Rp1636
(dp1637
g19
g1634
sg21
(lp1638
VusePhase2Stacks
p1639
asg24
I00
sg25
Nsg1639
g0
(g75
g2
Ntp1640
Rp1641
(dp1642
g24
I00
sg33
I01
sg34
I00
sg79
I00
sbsg34
I00
sg36
g37
sg38
I55
sg130
g1634
sbsVZdcGeometryFromDBEP
p1643
g0
(g1418
g2
Ntp1644
Rp1645
(dp1646
g19
g1643
sg21
(lp1647
g1440
asg24
I00
sg25
Nsg1440
g0
(g75
g2
Ntp1648
Rp1649
(dp1650
g24
I00
sg33
I01
sg34
I00
sg79
I00
sbsg34
I00
sg36
g37
sg38
I55
sg130
g1643
sbsVfakeForIdealAlignment
p1651
g0
(g1418
g2
Ntp1652
Rp1653
(dp1654
g19
VFakeAlignmentProducer
p1655
sg21
(lp1656
g555
asg24
I00
sg25
Nsg555
g0
(g272
g2
Ntp1657
Rp1658
(dp1659
g24
I00
sg33
I01
sg34
I01
sg79
VfakeForIdeal
p1660
sbsg34
I01
sg36
V/cvmfs/cms.cern.ch/slc7_amd64_gcc10/cms/cmssw/CMSSW_12_4_2/python/Alignment/CommonAlignmentProducer/fakeForIdealAlignmentProducer_cfi.py
p1661
sg38
I5
sg130
g1651
sbsVhcalDDDRecConstants
p1662
g0
(g1418
g2
Ntp1663
Rp1664
(dp1665
g19
VHcalDDDRecConstantsESModule
p1666
sg21
(lp1667
g555
asg24
I00
sg25
Nsg555
g0
(g272
g2
Ntp1668
Rp1669
(dp1670
g24
I00
sg33
I01
sg34
I00
sg79
g72
sbsg34
I00
sg36
g37
sg38
I55
sg130
g1662
sbsVhcalDDDSimConstants
p1671
g0
(g1418
g2
Ntp1672
Rp1673
(dp1674
g19
VHcalDDDSimConstantsESModule
p1675
sg21
(lp1676
g555
asg24
I00
sg25
Nsg555
g0
(g272
g2
Ntp1677
Rp1678
(dp1679
g24
I00
sg33
I01
sg34
I00
sg79
g72
sbsg34
I00
sg36
g37
sg38
I55
sg130
g1671
sbsVhcalTopologyIdeal
p1680
g0
(g1418
g2
Ntp1681
Rp1682
(dp1683
g19
VHcalTopologyIdealEP
p1684
sg21
(lp1685
VExclude
p1686
aVMergePosition
p1687
ag555
asg24
I00
sg25
Nsg1686
g0
(g272
g2
Ntp1688
Rp1689
(dp1690
g24
I00
sg33
I00
sg34
I00
sg79
g72
sbsg34
I00
sg1687
g0
(g75
g2
Ntp1691
Rp1692
(dp1693
g24
I00
sg33
I00
sg34
I00
sg79
I00
sbsg555
g0
(g272
g2
Ntp1694
Rp1695
(dp1696
g24
I00
sg33
I01
sg34
I00
sg79
g72
sbsg36
g37
sg38
I55
sg130
g1680
sbsVidealForDigiCSCGeometry
p1697
g0
(g1418
g2
Ntp1698
Rp1699
(dp1700
g19
g1428
sg21
(lp1701
g1433
ag1434
ag1435
ag555
ag1436
ag1437
ag1438
ag1439
ag1440
ag1441
asg24
I00
sg25
Nsg1433
g0
(g75
g2
Ntp1702
Rp1703
(dp1704
g24
I00
sg33
I01
sg34
I00
sg79
I00
sbsg34
I01
sg1434
g0
(g75
g2
Ntp1705
Rp1706
(dp1707
g24
I00
sg33
I01
sg34
I00
sg79
I00
sbsg1435
g0
(g272
g2
Ntp1708
Rp1709
(dp1710
g24
I00
sg33
I01
sg34
I01
sg79
g1660
sbsg555
g0
(g272
g2
Ntp1711
Rp1712
(dp1713
g24
I00
sg33
I01
sg34
I01
sg79
VidealForDigi
p1714
sbsg1436
g0
(g75
g2
Ntp1715
Rp1716
(dp1717
g24
I00
sg33
I01
sg34
I00
sg79
I01
sbsg1437
g0
(g75
g2
Ntp1718
Rp1719
(dp1720
g24
I00
sg33
I01
sg34
I00
sg79
I00
sbsg1438
g0
(g75
g2
Ntp1721
Rp1722
(dp1723
g24
I00
sg33
I01
sg34
I00
sg79
I01
sbsg1439
g0
(g75
g2
Ntp1724
Rp1725
(dp1726
g24
I00
sg33
I01
sg34
I00
sg79
I00
sbsg1440
g0
(g75
g2
Ntp1727
Rp1728
(dp1729
g24
I00
sg33
I01
sg34
I01
sg79
I00
sbsg1441
g0
(g75
g2
Ntp1730
Rp1731
(dp1732
g24
I00
sg33
I00
sg34
I00
sg79
I00
sbsg36
V/cvmfs/cms.cern.ch/slc7_amd64_gcc10/cms/cmssw/CMSSW_12_4_2/python/Geometry/CSCGeometryBuilder/idealForDigiCscGeometryDB_cff.py
p1733
sg38
I8
sg130
g1697
sbsVidealForDigiDTGeometry
p1734
g0
(g1418
g2
Ntp1735
Rp1736
(dp1737
g19
g1515
sg21
(lp1738
g1433
ag1434
ag1520
ag1435
ag555
ag1521
ag1522
ag1440
asg24
I00
sg25
Nsg1433
g0
(g75
g2
Ntp1739
Rp1740
(dp1741
g24
I00
sg33
I01
sg34
I01
sg79
I00
sbsg34
I01
sg1434
g0
(g75
g2
Ntp1742
Rp1743
(dp1744
g24
I00
sg33
I01
sg34
I00
sg79
I00
sbsg1520
g0
(g1529
g2
Ntp1745
Rp1746
(dp1747
g24
I00
sg33
I01
sg34
I00
sg1533
g72
sg1534
g72
sbsg1435
g0
(g272
g2
Ntp1748
Rp1749
(dp1750
g24
I00
sg33
I01
sg34
I01
sg79
g1660
sbsg555
g0
(g272
g2
Ntp1751
Rp1752
(dp1753
g24
I00
sg33
I01
sg34
I01
sg79
g1714
sbsg1521
g0
(g272
g2
Ntp1754
Rp1755
(dp1756
g24
I00
sg33
I01
sg34
I00
sg79
g1544
sbsg1522
g0
(g272
g2
Ntp1757
Rp1758
(dp1759
g24
I00
sg33
I01
sg34
I00
sg79
g1548
sbsg1440
g0
(g75
g2
Ntp1760
Rp1761
(dp1762
g24
I00
sg33
I01
sg34
I01
sg79
I00
sbsg36
V/cvmfs/cms.cern.ch/slc7_amd64_gcc10/cms/cmssw/CMSSW_12_4_2/python/Geometry/DTGeometryBuilder/idealForDigiDtGeometryDB_cff.py
p1763
sg38
I8
sg130
g1734
sbsVidealForDigiTrackerGeometry
p1764
g0
(g1418
g2
Ntp1765
Rp1766
(dp1767
g19
VTrackerDigiGeometryESModule
p1768
sg21
(lp1769
g555
ag1433
ag1440
ag1435
asg24
I00
sg25
Nsg555
g0
(g272
g2
Ntp1770
Rp1771
(dp1772
g24
I00
sg33
I01
sg34
I01
sg79
g1714
sbsg34
I01
sg1433
g0
(g75
g2
Ntp1773
Rp1774
(dp1775
g24
I00
sg33
I01
sg34
I00
sg79
I00
sbsg1440
g0
(g75
g2
Ntp1776
Rp1777
(dp1778
g24
I00
sg33
I01
sg34
I01
sg79
I00
sbsg1435
g0
(g272
g2
Ntp1779
Rp1780
(dp1781
g24
I00
sg33
I01
sg34
I01
sg79
g1660
sbsg36
V/cvmfs/cms.cern.ch/slc7_amd64_gcc10/cms/cmssw/CMSSW_12_4_2/python/Geometry/TrackerGeometryBuilder/idealForDigiTrackerGeometryDB_cff.py
p1782
sg38
I8
sg130
g1764
sbsVmuonGeometryConstants
p1783
g0
(g1418
g2
Ntp1784
Rp1785
(dp1786
g19
VMuonGeometryConstantsESModule
p1787
sg21
(lp1788
g1434
ag555
asg24
I00
sg25
Nsg1434
g0
(g75
g2
Ntp1789
Rp1790
(dp1791
g24
I00
sg33
I01
sg34
I00
sg79
I00
sbsg34
I00
sg555
g0
(g272
g2
Ntp1792
Rp1793
(dp1794
g24
I00
sg33
I01
sg34
I00
sg79
g72
sbsg36
g37
sg38
I55
sg130
g1783
sbsVtrackerGeometryDB
p1795
g0
(g1418
g2
Ntp1796
Rp1797
(dp1798
g19
g1768
sg21
(lp1799
g555
ag1433
ag1440
ag1435
asg24
I00
sg25
Nsg555
g0
(g272
g2
Ntp1800
Rp1801
(dp1802
g24
I00
sg33
I01
sg34
I00
sg79
g72
sbsg34
I00
sg1433
g0
(g75
g2
Ntp1803
Rp1804
(dp1805
g24
I00
sg33
I01
sg34
I00
sg79
I00
sbsg1440
g0
(g75
g2
Ntp1806
Rp1807
(dp1808
g24
I00
sg33
I01
sg34
I00
sg79
I01
sbsg1435
g0
(g272
g2
Ntp1809
Rp1810
(dp1811
g24
I00
sg33
I01
sg34
I00
sg79
g72
sbsg36
g37
sg38
I55
sg130
g1795
sbsVtrackerNumberingGeometryDB
p1812
g0
(g1418
g2
Ntp1813
Rp1814
(dp1815
g19
VTrackerGeometricDetESModule
p1816
sg21
(lp1817
g1433
ag1434
ag555
asg24
I00
sg25
Nsg1433
g0
(g75
g2
Ntp1818
Rp1819
(dp1820
g24
I00
sg33
I01
sg34
I00
sg79
I00
sbsg34
I00
sg1434
g0
(g75
g2
Ntp1821
Rp1822
(dp1823
g24
I00
sg33
I01
sg34
I00
sg79
I00
sbsg555
g0
(g272
g2
Ntp1824
Rp1825
(dp1826
g24
I00
sg33
I01
sg34
I00
sg79
g72
sbsg36
g37
sg38
I55
sg130
g1812
sbsVtrackerTopology
p1827
g0
(g1418
g2
Ntp1828
Rp1829
(dp1830
g19
VTrackerTopologyEP
p1831
sg21
(lp1832
g555
asg24
I00
sg25
Nsg555
g0
(g272
g2
Ntp1833
Rp1834
(dp1835
g24
I00
sg33
I01
sg34
I00
sg79
g72
sbsg34
I00
sg36
g37
sg38
I55
sg130
g1827
sbsVMuonNumberingInitialization
p1836
g0
(g1418
g2
Ntp1837
Rp1838
(dp1839
g19
g1836
sg21
(lp1840
sg24
I00
sg25
Nsg34
I00
sg36
g37
sg38
I55
sg130
g1836
sbsVXMLFromDBSource
p1841
g0
(g1418
g2
Ntp1842
Rp1843
(dp1844
g19
VXMLIdealGeometryESProducer
p1845
sg21
(lp1846
VrootDDName
p1847
aVlabel
p1848
asg24
I00
sg25
Nsg1847
g0
(g272
g2
Ntp1849
Rp1850
(dp1851
g24
I00
sg33
I01
sg34
I00
sg79
Vcms:OCMS
p1852
sbsg34
I00
sg1848
g0
(g272
g2
Ntp1853
Rp1854
(dp1855
g24
I00
sg33
I01
sg34
I00
sg79
VExtended
p1856
sbsg36
g37
sg38
I55
sg130
g1841
sbsVcaloSimulationParameters
p1857
g0
(g1418
g2
Ntp1858
Rp1859
(dp1860
g19
VCaloSimParametersESModule
p1861
sg21
(lp1862
g1434
ag555
asg24
I00
sg25
Nsg1434
g0
(g75
g2
Ntp1863
Rp1864
(dp1865
g24
I00
sg33
I01
sg34
I00
sg79
I00
sbsg34
I00
sg555
g0
(g272
g2
Ntp1866
Rp1867
(dp1868
g24
I00
sg33
I01
sg34
I00
sg79
g72
sbsg36
g37
sg38
I55
sg130
g1857
sbsVecalSimulationParametersEB
p1869
g0
(g1418
g2
Ntp1870
Rp1871
(dp1872
g19
VEcalSimParametersESModule
p1873
sg21
(lp1874
g1434
aVname
p1875
ag555
asg24
I00
sg25
Nsg1434
g0
(g75
g2
Ntp1876
Rp1877
(dp1878
g24
I00
sg33
I01
sg34
I00
sg79
I00
sbsg34
I00
sg1875
g0
(g272
g2
Ntp1879
Rp1880
(dp1881
g24
I00
sg33
I01
sg34
I00
sg79
VEcalHitsEB
p1882
sbsg555
g0
(g272
g2
Ntp1883
Rp1884
(dp1885
g24
I00
sg33
I01
sg34
I00
sg79
g72
sbsg36
g37
sg38
I55
sg130
g1869
sbsVecalSimulationParametersEE
p1886
g0
(g1418
g2
Ntp1887
Rp1888
(dp1889
g19
g1873
sg21
(lp1890
g1434
ag1875
ag555
asg24
I00
sg25
Nsg1434
g0
(g75
g2
Ntp1891
Rp1892
(dp1893
g24
I00
sg33
I01
sg34
I00
sg79
I00
sbsg34
I00
sg1875
g0
(g272
g2
Ntp1894
Rp1895
(dp1896
g24
I00
sg33
I01
sg34
I00
sg79
VEcalHitsEE
p1897
sbsg555
g0
(g272
g2
Ntp1898
Rp1899
(dp1900
g24
I00
sg33
I01
sg34
I00
sg79
g72
sbsg36
V/cvmfs/cms.cern.ch/slc7_amd64_gcc10/cms/cmssw/CMSSW_12_4_2/python/Geometry/EcalCommonData/ecalSimulationParameters_cff.py
p1901
sg38
I11
sg130
g1886
sbsVecalSimulationParametersES
p1902
g0
(g1418
g2
Ntp1903
Rp1904
(dp1905
g19
g1873
sg21
(lp1906
g1434
ag1875
ag555
asg24
I00
sg25
Nsg1434
g0
(g75
g2
Ntp1907
Rp1908
(dp1909
g24
I00
sg33
I01
sg34
I00
sg79
I00
sbsg34
I00
sg1875
g0
(g272
g2
Ntp1910
Rp1911
(dp1912
g24
I00
sg33
I01
sg34
I00
sg79
VEcalHitsES
p1913
sbsg555
g0
(g272
g2
Ntp1914
Rp1915
(dp1916
g24
I00
sg33
I01
sg34
I00
sg79
g72
sbsg36
g1901
sg38
I14
sg130
g1902
sbsVhcalSimulationConstants
p1917
g0
(g1418
g2
Ntp1918
Rp1919
(dp1920
g19
VHcalSimulationConstantsESModule
p1921
sg21
(lp1922
g555
asg24
I00
sg25
Nsg555
g0
(g272
g2
Ntp1923
Rp1924
(dp1925
g24
I00
sg33
I01
sg34
I00
sg79
g72
sbsg34
I00
sg36
g37
sg38
I55
sg130
g1917
sbsVhcalSimulationParameters
p1926
g0
(g1418
g2
Ntp1927
Rp1928
(dp1929
g19
VHcalSimParametersESModule
p1930
sg21
(lp1931
g1434
ag555
asg24
I00
sg25
Nsg1434
g0
(g75
g2
Ntp1932
Rp1933
(dp1934
g24
I00
sg33
I01
sg34
I00
sg79
I00
sbsg34
I00
sg555
g0
(g272
g2
Ntp1935
Rp1936
(dp1937
g24
I00
sg33
I01
sg34
I00
sg79
g72
sbsg36
g37
sg38
I55
sg130
g1926
sbsVmuonOffsetESProducer
p1938
g0
(g1418
g2
Ntp1939
Rp1940
(dp1941
g19
VMuonOffsetESProducer
p1942
sg21
(lp1943
g1434
aVnames
p1944
ag555
asg24
I00
sg25
Nsg1434
g0
(g75
g2
Ntp1945
Rp1946
(dp1947
g24
I00
sg33
I01
sg34
I00
sg79
I00
sbsg34
I00
sg1944
g0
(g26
g27
(lp1948
VMuonCommonNumbering
p1949
aVMuonBarrel
p1950
aVMuonEndcap
p1951
aVMuonBarrelWheels
p1952
aVMuonBarrelStation1
p1953
aVMuonBarrelStation2
p1954
aVMuonBarrelStation3
p1955
aVMuonBarrelStation4
p1956
aVMuonBarrelSuperLayer
p1957
aVMuonBarrelLayer
p1958
aVMuonBarrelWire
p1959
aVMuonRpcPlane1I
p1960
aVMuonRpcPlane1O
p1961
aVMuonRpcPlane2I
p1962
aVMuonRpcPlane2O
p1963
aVMuonRpcPlane3S
p1964
aVMuonRpcPlane4
p1965
aVMuonRpcChamberLeft
p1966
aVMuonRpcChamberMiddle
p1967
aVMuonRpcChamberRight
p1968
aVMuonRpcEndcap1
p1969
aVMuonRpcEndcap2
p1970
aVMuonRpcEndcap3
p1971
aVMuonRpcEndcap4
p1972
aVMuonRpcEndcapSector
p1973
aVMuonRpcEndcapChamberB1
p1974
aVMuonRpcEndcapChamberB2
p1975
aVMuonRpcEndcapChamberB3
p1976
aVMuonRpcEndcapChamberC1
p1977
aVMuonRpcEndcapChamberC2
p1978
aVMuonRpcEndcapChamberC3
p1979
aVMuonRpcEndcapChamberE1
p1980
aVMuonRpcEndcapChamberE2
p1981
aVMuonRpcEndcapChamberE3
p1982
aVMuonRpcEndcapChamberF1
p1983
aVMuonRpcEndcapChamberF2
p1984
aVMuonRpcEndcapChamberF3
p1985
aVMuonEndcapStation1
p1986
aVMuonEndcapStation2
p1987
aVMuonEndcapStation3
p1988
aVMuonEndcapStation4
p1989
aVMuonEndcapSubrings
p1990
aVMuonEndcapSectors
p1991
aVMuonEndcapLayers
p1992
aVMuonEndcapRing1
p1993
aVMuonEndcapRing2
p1994
aVMuonEndcapRing3
p1995
aVMuonEndcapRingA
p1996
aVMuonGEMEndcap
p1997
aVMuonGEMSector
p1998
aVMuonGEMChamber
p1999
atp2000
Rp2001
(dp2002
g24
I00
sg33
I01
sg34
I00
sg35
I1
sbsg555
g0
(g272
g2
Ntp2003
Rp2004
(dp2005
g24
I00
sg33
I01
sg34
I00
sg79
g72
sbsg36
g37
sg38
I55
sg130
g1938
sbsVParabolicParametrizedMagneticFieldProducer
p2006
g0
(g1418
g2
Ntp2007
Rp2008
(dp2009
g19
VAutoParametrizedMagneticFieldProducer
p2010
sg21
(lp2011
Vversion
p2012
ag1848
aVvalueOverride
p2013
asg24
I00
sg25
Nsg2012
g0
(g272
g2
Ntp2014
Rp2015
(dp2016
g24
I00
sg33
I01
sg34
I00
sg79
VParabolic
p2017
sbsg34
I01
sg1848
g0
(g272
g2
Ntp2018
Rp2019
(dp2020
g24
I00
sg33
I00
sg34
I01
sg79
VParabolicMf
p2021
sbsg2013
g0
(g216
g2
Ntp2022
Rp2023
(dp2024
g24
I00
sg33
I01
sg34
I00
sg79
I-1
sbsg36
g37
sg38
I55
sg130
g2006
sbsVVolumeBasedMagneticFieldESProducer
p2025
g0
(g1418
g2
Ntp2026
Rp2027
(dp2028
g19
VVolumeBasedMagneticFieldESProducerFromDB
p2029
sg21
(lp2030
g1848
aVdebugBuilder
p2031
ag2013
asg24
I00
sg25
Nsg1848
g0
(g272
g2
Ntp2032
Rp2033
(dp2034
g24
I00
sg33
I00
sg34
I00
sg79
g72
sbsg34
I00
sg2031
g0
(g75
g2
Ntp2035
Rp2036
(dp2037
g24
I00
sg33
I00
sg34
I00
sg79
I00
sbsg2013
g0
(g216
g2
Ntp2038
Rp2039
(dp2040
g24
I00
sg33
I01
sg34
I00
sg79
I-1
sbsg36
g37
sg38
I55
sg130
g2025
sbsVCastorDbProducer
p2041
g0
(g1418
g2
Ntp2042
Rp2043
(dp2044
g19
g2041
sg21
(lp2045
g555
asg24
I00
sg25
Nsg555
g0
(g272
g2
Ntp2046
Rp2047
(dp2048
g24
I00
sg33
I01
sg34
I00
sg79
g72
sbsg34
I00
sg36
g37
sg38
I55
sg130
g2041
sbsVEcalLaserCorrectionService
p2049
g0
(g1418
g2
Ntp2050
Rp2051
(dp2052
g19
g2049
sg21
(lp2053
VmaxExtrapolationTimeInSec
p2054
asg24
I00
sg25
Nsg2054
g0
(cFWCore.ParameterSet.Types
uint32
p2055
g2
Ntp2056
Rp2057
(dp2058
g24
I00
sg33
I01
sg34
I00
sg79
I0
sbsg34
I00
sg36
g37
sg38
I55
sg130
g2049
sbsVEcalLaserCorrectionServiceMC
p2059
g0
(g1418
g2
Ntp2060
Rp2061
(dp2062
g19
g2059
sg21
(lp2063
g555
asg24
I00
sg25
Nsg555
g0
(g272
g2
Ntp2064
Rp2065
(dp2066
g24
I00
sg33
I01
sg34
I00
sg79
g72
sbsg34
I00
sg36
g37
sg38
I55
sg130
g2059
sbsVSiStripRecHitMatcherESProducer
p2067
g0
(g1418
g2
Ntp2068
Rp2069
(dp2070
g19
g2067
sg21
(lp2071
g1423
aVNSigmaInside
p2072
aVPreFilter
p2073
asg24
I00
sg25
Nsg1423
g0
(g272
g2
Ntp2074
Rp2075
(dp2076
g24
I00
sg33
I01
sg34
I00
sg79
VStandardMatcher
p2077
sbsg34
I00
sg2072
g0
(g570
g2
Ntp2078
Rp2079
(dp2080
g24
I00
sg33
I01
sg34
I00
sg79
F3.0
sbsg2073
g0
(g75
g2
Ntp2081
Rp2082
(dp2083
g24
I00
sg33
I01
sg34
I00
sg79
I00
sbsg36
g37
sg38
I55
sg130
g2067
sbsVStripCPEfromTrackAngleESProducer
p2084
g0
(g1418
g2
Ntp2085
Rp2086
(dp2087
g19
VStripCPEESProducer
p2088
sg21
(lp2089
g1423
aVComponentType
p2090
aVparameters
p2091
asg24
I00
sg25
Nsg1423
g0
(g272
g2
Ntp2092
Rp2093
(dp2094
g24
I00
sg33
I01
sg34
I01
sg79
VStripCPEfromTrackAngle
p2095
sbsg34
I00
sg2090
g0
(g272
g2
Ntp2096
Rp2097
(dp2098
g24
I00
sg33
I01
sg34
I01
sg79
g2095
sbsg2091
g0
(g208
g2
Ntp2099
Rp2100
(dp2101
g24
I00
sg33
I01
sg34
I00
sg21
(lp2102
VmLC_P0
p2103
aVmLC_P1
p2104
aVmLC_P2
p2105
aVmTIB_P0
p2106
aVmTIB_P1
p2107
aVmTOB_P0
p2108
aVmTOB_P1
p2109
aVmTID_P0
p2110
aVmTID_P1
p2111
aVmTEC_P0
p2112
aVmTEC_P1
p2113
aVuseLegacyError
p2114
aVmaxChgOneMIP
p2115
asg25
Nsg2103
g0
(g570
g2
Ntp2116
Rp2117
(dp2118
g24
I00
sg33
I01
sg34
I00
sg79
F-0.326
sbsg2104
g0
(g570
g2
Ntp2119
Rp2120
(dp2121
g24
I00
sg33
I01
sg34
I00
sg79
F0.618
sbsg2105
g0
(g570
g2
Ntp2122
Rp2123
(dp2124
g24
I00
sg33
I01
sg34
I00
sg79
F0.3
sbsg2106
g0
(g570
g2
Ntp2125
Rp2126
(dp2127
g24
I00
sg33
I01
sg34
I00
sg79
F-0.742
sbsg2107
g0
(g570
g2
Ntp2128
Rp2129
(dp2130
g24
I00
sg33
I01
sg34
I00
sg79
F0.202
sbsg2108
g0
(g570
g2
Ntp2131
Rp2132
(dp2133
g24
I00
sg33
I01
sg34
I00
sg79
F-1.026
sbsg2109
g0
(g570
g2
Ntp2134
Rp2135
(dp2136
g24
I00
sg33
I01
sg34
I00
sg79
F0.253
sbsg2110
g0
(g570
g2
Ntp2137
Rp2138
(dp2139
g24
I00
sg33
I01
sg34
I00
sg79
F-1.427
sbsg2111
g0
(g570
g2
Ntp2140
Rp2141
(dp2142
g24
I00
sg33
I01
sg34
I00
sg79
F0.433
sbsg2112
g0
(g570
g2
Ntp2143
Rp2144
(dp2145
g24
I00
sg33
I01
sg34
I00
sg79
F-1.885
sbsg2113
g0
(g570
g2
Ntp2146
Rp2147
(dp2148
g24
I00
sg33
I01
sg34
I00
sg79
F0.471
sbsg2114
g0
(g75
g2
Ntp2149
Rp2150
(dp2151
g24
I00
sg33
I01
sg34
I00
sg79
I00
sbsg2115
g0
(g570
g2
Ntp2152
Rp2153
(dp2154
g24
I00
sg33
I01
sg34
I00
sg79
F6000.0
sbsbsg36
V/cvmfs/cms.cern.ch/slc7_amd64_gcc10/cms/cmssw/CMSSW_12_4_2/python/RecoLocalTracker/SiStripRecHitConverter/StripCPEfromTrackAngle_cfi.py
p2155
sg38
I4
sg130
g2084
sbsVctppsBeamParametersFromLHCInfoESSource
p2156
g0
(g1418
g2
Ntp2157
Rp2158
(dp2159
g19
VCTPPSBeamParametersFromLHCInfoESSource
p2160
sg21
(lp2161
VlhcInfoLabel
p2162
aVbeamDivX45
p2163
aVbeamDivY45
p2164
aVbeamDivX56
p2165
aVbeamDivY56
p2166
aVvtxOffsetX45
p2167
aVvtxOffsetY45
p2168
aVvtxOffsetZ45
p2169
aVvtxOffsetX56
p2170
aVvtxOffsetY56
p2171
aVvtxOffsetZ56
p2172
aVvtxStddevX
p2173
aVvtxStddevY
p2174
aVvtxStddevZ
p2175
ag555
asg24
I00
sg25
Nsg2162
g0
(g272
g2
Ntp2176
Rp2177
(dp2178
g24
I00
sg33
I01
sg34
I00
sg79
g72
sbsg34
I00
sg2163
g0
(g570
g2
Ntp2179
Rp2180
(dp2181
g24
I00
sg33
I01
sg34
I00
sg79
F0.1
sbsg2164
g0
(g570
g2
Ntp2182
Rp2183
(dp2184
g24
I00
sg33
I01
sg34
I00
sg79
F0.1
sbsg2165
g0
(g570
g2
Ntp2185
Rp2186
(dp2187
g24
I00
sg33
I01
sg34
I00
sg79
F0.1
sbsg2166
g0
(g570
g2
Ntp2188
Rp2189
(dp2190
g24
I00
sg33
I01
sg34
I00
sg79
F0.1
sbsg2167
g0
(g570
g2
Ntp2191
Rp2192
(dp2193
g24
I00
sg33
I01
sg34
I00
sg79
F0.01
sbsg2168
g0
(g570
g2
Ntp2194
Rp2195
(dp2196
g24
I00
sg33
I01
sg34
I00
sg79
F0.01
sbsg2169
g0
(g570
g2
Ntp2197
Rp2198
(dp2199
g24
I00
sg33
I01
sg34
I00
sg79
F0.01
sbsg2170
g0
(g570
g2
Ntp2200
Rp2201
(dp2202
g24
I00
sg33
I01
sg34
I00
sg79
F0.01
sbsg2171
g0
(g570
g2
Ntp2203
Rp2204
(dp2205
g24
I00
sg33
I01
sg34
I00
sg79
F0.01
sbsg2172
g0
(g570
g2
Ntp2206
Rp2207
(dp2208
g24
I00
sg33
I01
sg34
I00
sg79
F0.01
sbsg2173
g0
(g570
g2
Ntp2209
Rp2210
(dp2211
g24
I00
sg33
I01
sg34
I00
sg79
F0.02
sbsg2174
g0
(g570
g2
Ntp2212
Rp2213
(dp2214
g24
I00
sg33
I01
sg34
I00
sg79
F0.02
sbsg2175
g0
(g570
g2
Ntp2215
Rp2216
(dp2217
g24
I00
sg33
I01
sg34
I00
sg79
F0.02
sbsg555
g0
(g272
g2
Ntp2218
Rp2219
(dp2220
g24
I00
sg33
I01
sg34
I00
sg79
g72
sbsg36
g37
sg38
I55
sg130
g2156
sbsVctppsInterpolatedOpticalFunctionsESSource
p2221
g0
(g1418
g2
Ntp2222
Rp2223
(dp2224
g19
VCTPPSInterpolatedOpticalFunctionsESSource
p2225
sg21
(lp2226
g2162
aVopticsLabel
p2227
ag555
asg24
I00
sg25
Nsg2162
g0
(g272
g2
Ntp2228
Rp2229
(dp2230
g24
I00
sg33
I01
sg34
I00
sg79
g72
sbsg34
I01
sg2227
g0
(g272
g2
Ntp2231
Rp2232
(dp2233
g24
I00
sg33
I01
sg34
I00
sg79
g72
sbsg555
g0
(g272
g2
Ntp2234
Rp2235
(dp2236
g24
I00
sg33
I01
sg34
I00
sg79
g72
sbsg36
g37
sg38
I55
sg130
g2221
sbsVhcal_db_producer
p2237
g0
(g1418
g2
Ntp2238
Rp2239
(dp2240
g19
VHcalDbProducer
p2241
sg21
(lp2242
Vdump
p2243
aVfile
p2244
asg24
I00
sg25
Nsg2243
g0
(g26
g27
(lp2245
g72
atp2246
Rp2247
(dp2248
g24
I00
sg33
I00
sg34
I00
sg35
I1
sbsg34
I00
sg2244
g0
(g272
g2
Ntp2249
Rp2250
(dp2251
g24
I00
sg33
I00
sg34
I00
sg79
g72
sbsg36
g37
sg38
I55
sg130
g2237
sbsVmultipleScatteringParametrisationMakerESProducer
p2252
g0
(g1418
g2
Ntp2253
Rp2254
(dp2255
g19
VMultipleScatteringParametrisationMakerESProducer
p2256
sg21
(lp2257
g555
asg24
I00
sg25
Nsg555
g0
(g272
g2
Ntp2258
Rp2259
(dp2260
g24
I00
sg33
I01
sg34
I00
sg79
g72
sbsg34
I00
sg36
g37
sg38
I55
sg130
g2252
sbsVsiPixelQualityESProducer
p2261
g0
(g1418
g2
Ntp2262
Rp2263
(dp2264
g19
VSiPixelQualityESProducer
p2265
sg21
(lp2266
VsiPixelQualityLabel
p2267
aVListOfRecordToMerge
p2268
asg24
I00
sg25
Nsg2267
g0
(g272
g2
Ntp2269
Rp2270
(dp2271
g24
I00
sg33
I01
sg34
I00
sg79
g72
sbsg34
I01
sg36
g37
sg38
I55
sg2268
g0
(g523
g27
(lp2272
g0
(g208
g2
Ntp2273
Rp2274
(dp2275
g24
I00
sg33
I01
sg34
I00
sg21
(lp2276
Vrecord
p2277
aVtag
p2278
asg25
Nsg2277
g0
(g272
g2
Ntp2279
Rp2280
(dp2281
g24
I00
sg33
I01
sg34
I00
sg79
VSiPixelQualityFromDbRcd
p2282
sbsg2278
g0
(g272
g2
Ntp2283
Rp2284
(dp2285
g24
I00
sg33
I01
sg34
I00
sg79
g72
sbsbag0
(g208
g2
Ntp2286
Rp2287
(dp2288
g24
I00
sg33
I01
sg34
I00
sg21
(lp2289
g2277
ag2278
asg25
Nsg2277
g0
(g272
g2
Ntp2290
Rp2291
(dp2292
g24
I00
sg33
I01
sg34
I00
sg79
VSiPixelDetVOffRcd
p2293
sbsg2278
g0
(g272
g2
Ntp2294
Rp2295
(dp2296
g24
I00
sg33
I01
sg34
I00
sg79
g72
sbsbatp2297
Rp2298
(dp2299
g24
I00
sg33
I01
sg34
I00
sg35
I1
sbsg130
g2261
sbsVsiStripBackPlaneCorrectionDepESProducer
p2300
g0
(g1418
g2
Ntp2301
Rp2302
(dp2303
g19
VSiStripBackPlaneCorrectionDepESProducer
p2304
sg21
(lp2305
VLatencyRecord
p2306
aVBackPlaneCorrectionPeakMode
p2307
aVBackPlaneCorrectionDeconvMode
p2308
asg24
I00
sg25
Nsg2306
g0
(g208
g2
Ntp2309
Rp2310
(dp2311
g24
I00
sg33
I01
sg34
I00
sg21
(lp2312
g2277
ag1848
asg25
Nsg2277
g0
(g272
g2
Ntp2313
Rp2314
(dp2315
g24
I00
sg33
I01
sg34
I00
sg79
VSiStripLatencyRcd
p2316
sbsg1848
g0
(g272
g2
Ntp2317
Rp2318
(dp2319
g24
I00
sg33
I00
sg34
I00
sg79
g72
sbsbsg34
I00
sg2307
g0
(g208
g2
Ntp2320
Rp2321
(dp2322
g24
I00
sg33
I01
sg34
I00
sg21
(lp2323
g2277
ag1848
asg25
Nsg2277
g0
(g272
g2
Ntp2324
Rp2325
(dp2326
g24
I00
sg33
I01
sg34
I00
sg79
VSiStripBackPlaneCorrectionRcd
p2327
sbsg1848
g0
(g272
g2
Ntp2328
Rp2329
(dp2330
g24
I00
sg33
I00
sg34
I00
sg79
Vpeak
p2331
sbsbsg2308
g0
(g208
g2
Ntp2332
Rp2333
(dp2334
g24
I00
sg33
I01
sg34
I00
sg21
(lp2335
g2277
ag1848
asg25
Nsg2277
g0
(g272
g2
Ntp2336
Rp2337
(dp2338
g24
I00
sg33
I01
sg34
I00
sg79
g2327
sbsg1848
g0
(g272
g2
Ntp2339
Rp2340
(dp2341
g24
I00
sg33
I00
sg34
I00
sg79
Vdeconvolution
p2342
sbsbsg36
g37
sg38
I55
sg130
g2300
sbsVsiStripGainESProducer
p2343
g0
(g1418
g2
Ntp2344
Rp2345
(dp2346
g19
VSiStripGainESProducer
p2347
sg21
(lp2348
g555
aVprintDebug
p2349
aVAutomaticNormalization
p2350
aVAPVGain
p2351
asg24
I00
sg25
Nsg555
g0
(g272
g2
Ntp2352
Rp2353
(dp2354
g24
I00
sg33
I01
sg34
I00
sg79
g72
sbsg34
I00
sg2349
g0
(g75
g2
Ntp2355
Rp2356
(dp2357
g24
I00
sg33
I00
sg34
I00
sg79
I00
sbsg2350
g0
(g75
g2
Ntp2358
Rp2359
(dp2360
g24
I00
sg33
I01
sg34
I00
sg79
I00
sbsg2351
g0
(g523
g27
(lp2361
g0
(g208
g2
Ntp2362
Rp2363
(dp2364
g24
I00
sg33
I01
sg34
I00
sg21
(lp2365
VRecord
p2366
aVLabel
p2367
aVNormalizationFactor
p2368
asg25
Nsg2366
g0
(g272
g2
Ntp2369
Rp2370
(dp2371
g24
I00
sg33
I01
sg34
I00
sg79
VSiStripApvGainRcd
p2372
sbsg2367
g0
(g272
g2
Ntp2373
Rp2374
(dp2375
g24
I00
sg33
I00
sg34
I00
sg79
g72
sbsg2368
g0
(g570
g2
Ntp2376
Rp2377
(dp2378
g24
I00
sg33
I00
sg34
I00
sg79
F1.0
sbsbag0
(g208
g2
Ntp2379
Rp2380
(dp2381
g24
I00
sg33
I01
sg34
I00
sg21
(lp2382
g2366
ag2367
ag2368
asg25
Nsg2366
g0
(g272
g2
Ntp2383
Rp2384
(dp2385
g24
I00
sg33
I01
sg34
I00
sg79
VSiStripApvGain2Rcd
p2386
sbsg2367
g0
(g272
g2
Ntp2387
Rp2388
(dp2389
g24
I00
sg33
I00
sg34
I00
sg79
g72
sbsg2368
g0
(g570
g2
Ntp2390
Rp2391
(dp2392
g24
I00
sg33
I00
sg34
I00
sg79
F1.0
sbsbatp2393
Rp2394
(dp2395
g24
I00
sg33
I01
sg34
I00
sg35
I1
sbsg36
g37
sg38
I55
sg130
g2343
sbsVsiStripLorentzAngleDepESProducer
p2396
g0
(g1418
g2
Ntp2397
Rp2398
(dp2399
g19
VSiStripLorentzAngleDepESProducer
p2400
sg21
(lp2401
g2306
aVLorentzAnglePeakMode
p2402
aVLorentzAngleDeconvMode
p2403
asg24
I00
sg25
Nsg2306
g0
(g208
g2
Ntp2404
Rp2405
(dp2406
g24
I00
sg33
I01
sg34
I00
sg21
(lp2407
g2277
ag1848
asg25
Nsg2277
g0
(g272
g2
Ntp2408
Rp2409
(dp2410
g24
I00
sg33
I01
sg34
I00
sg79
g2316
sbsg1848
g0
(g272
g2
Ntp2411
Rp2412
(dp2413
g24
I00
sg33
I00
sg34
I00
sg79
g72
sbsbsg34
I00
sg2402
g0
(g208
g2
Ntp2414
Rp2415
(dp2416
g24
I00
sg33
I01
sg34
I00
sg21
(lp2417
g2277
ag1848
asg25
Nsg2277
g0
(g272
g2
Ntp2418
Rp2419
(dp2420
g24
I00
sg33
I01
sg34
I00
sg79
VSiStripLorentzAngleRcd
p2421
sbsg1848
g0
(g272
g2
Ntp2422
Rp2423
(dp2424
g24
I00
sg33
I00
sg34
I00
sg79
g2331
sbsbsg2403
g0
(g208
g2
Ntp2425
Rp2426
(dp2427
g24
I00
sg33
I01
sg34
I00
sg21
(lp2428
g2277
ag1848
asg25
Nsg2277
g0
(g272
g2
Ntp2429
Rp2430
(dp2431
g24
I00
sg33
I01
sg34
I00
sg79
g2421
sbsg1848
g0
(g272
g2
Ntp2432
Rp2433
(dp2434
g24
I00
sg33
I00
sg34
I00
sg79
g2342
sbsbsg36
g37
sg38
I55
sg130
g2396
sbsVsiStripQualityESProducer
p2435
g0
(g1418
g2
Ntp2436
Rp2437
(dp2438
g19
VSiStripQualityESProducer
p2439
sg21
(lp2440
g555
ag2268
aVReduceGranularity
p2441
aVThresholdForReducedGranularity
p2442
aVPrintDebugOutput
p2443
aVUseEmptyRunInfo
p2444
asg24
I00
sg25
Nsg555
g0
(g272
g2
Ntp2445
Rp2446
(dp2447
g24
I00
sg33
I01
sg34
I00
sg79
g72
sbsg34
I01
sg2268
g0
(g523
g27
(lp2448
g0
(g208
g2
Ntp2449
Rp2450
(dp2451
g24
I00
sg33
I01
sg34
I00
sg21
(lp2452
g2277
ag2278
asg25
Nsg2277
g0
(g272
g2
Ntp2453
Rp2454
(dp2455
g24
I00
sg33
I01
sg34
I00
sg79
VSiStripDetVOffRcd
p2456
sbsg2278
g0
(g272
g2
Ntp2457
Rp2458
(dp2459
g24
I00
sg33
I01
sg34
I00
sg79
g72
sbsbag0
(g208
g2
Ntp2460
Rp2461
(dp2462
g24
I00
sg33
I01
sg34
I00
sg21
(lp2463
g2277
ag2278
asg25
Nsg2277
g0
(g272
g2
Ntp2464
Rp2465
(dp2466
g24
I00
sg33
I01
sg34
I00
sg79
VSiStripDetCablingRcd
p2467
sbsg2278
g0
(g272
g2
Ntp2468
Rp2469
(dp2470
g24
I00
sg33
I01
sg34
I00
sg79
g72
sbsbag0
(g208
g2
Ntp2471
Rp2472
(dp2473
g24
I00
sg33
I01
sg34
I00
sg21
(lp2474
g2277
ag2278
asg25
Nsg2277
g0
(g272
g2
Ntp2475
Rp2476
(dp2477
g24
I00
sg33
I01
sg34
I00
sg79
VRunInfoRcd
p2478
sbsg2278
g0
(g272
g2
Ntp2479
Rp2480
(dp2481
g24
I00
sg33
I01
sg34
I00
sg79
g72
sbsbag0
(g208
g2
Ntp2482
Rp2483
(dp2484
g24
I00
sg33
I01
sg34
I00
sg21
(lp2485
g2277
ag2278
asg25
Nsg2277
g0
(g272
g2
Ntp2486
Rp2487
(dp2488
g24
I00
sg33
I01
sg34
I00
sg79
VSiStripBadChannelRcd
p2489
sbsg2278
g0
(g272
g2
Ntp2490
Rp2491
(dp2492
g24
I00
sg33
I01
sg34
I00
sg79
g72
sbsbag0
(g208
g2
Ntp2493
Rp2494
(dp2495
g24
I00
sg33
I01
sg34
I00
sg21
(lp2496
g2277
ag2278
asg25
Nsg2277
g0
(g272
g2
Ntp2497
Rp2498
(dp2499
g24
I00
sg33
I01
sg34
I00
sg79
VSiStripBadFiberRcd
p2500
sbsg2278
g0
(g272
g2
Ntp2501
Rp2502
(dp2503
g24
I00
sg33
I01
sg34
I00
sg79
g72
sbsbag0
(g208
g2
Ntp2504
Rp2505
(dp2506
g24
I00
sg33
I01
sg34
I00
sg21
(lp2507
g2277
ag2278
asg25
Nsg2277
g0
(g272
g2
Ntp2508
Rp2509
(dp2510
g24
I00
sg33
I01
sg34
I00
sg79
VSiStripBadModuleRcd
p2511
sbsg2278
g0
(g272
g2
Ntp2512
Rp2513
(dp2514
g24
I00
sg33
I01
sg34
I00
sg79
g72
sbsbag0
(g208
g2
Ntp2515
Rp2516
(dp2517
g24
I00
sg33
I01
sg34
I00
sg21
(lp2518
g2277
ag2278
asg25
Nsg2277
g0
(g272
g2
Ntp2519
Rp2520
(dp2521
g24
I00
sg33
I01
sg34
I00
sg79
VSiStripBadStripRcd
p2522
sbsg2278
g0
(g272
g2
Ntp2523
Rp2524
(dp2525
g24
I00
sg33
I01
sg34
I00
sg79
g72
sbsbatp2526
Rp2527
(dp2528
g24
I00
sg33
I01
sg34
I00
sg35
I1
sbsg2441
g0
(g75
g2
Ntp2529
Rp2530
(dp2531
g24
I00
sg33
I01
sg34
I00
sg79
I00
sbsg2442
g0
(g570
g2
Ntp2532
Rp2533
(dp2534
g24
I00
sg33
I01
sg34
I00
sg79
F0.3
sbsg2443
g0
(g75
g2
Ntp2535
Rp2536
(dp2537
g24
I00
sg33
I01
sg34
I00
sg79
I00
sbsg2444
g0
(g75
g2
Ntp2538
Rp2539
(dp2540
g24
I00
sg33
I01
sg34
I00
sg79
I00
sbsg36
g37
sg38
I55
sg130
g2435
sbsVsistripconn
p2541
g0
(g1418
g2
Ntp2542
Rp2543
(dp2544
g19
VSiStripConnectivity
p2545
sg21
(lp2546
sg24
I00
sg25
Nsg34
I00
sg36
g37
sg38
I55
sg130
g2541
sbsVstripCPEESProducer
p2547
g0
(g1418
g2
Ntp2548
Rp2549
(dp2550
g19
g2088
sg21
(lp2551
g1423
ag2090
ag2091
asg24
I00
sg25
Nsg1423
g0
(g272
g2
Ntp2552
Rp2553
(dp2554
g24
I00
sg33
I01
sg34
I00
sg79
VstripCPE
p2555
sbsg34
I00
sg2090
g0
(g272
g2
Ntp2556
Rp2557
(dp2558
g24
I00
sg33
I01
sg34
I00
sg79
VSimpleStripCPE
p2559
sbsg2091
g0
(g208
g2
Ntp2560
Rp2561
(dp2562
g24
I00
sg33
I01
sg34
I00
sg21
(lp2563
sg25
Nsbsg36
g37
sg38
I55
sg130
g2547
sbssV_Process__esprefers
p2564
(dp2565
Ves_prefer_hcalHardcode
p2566
g0
(cFWCore.ParameterSet.Modules
ESPrefer
p2567
g2
Ntp2568
Rp2569
(dp2570
g19
g725
sg21
(lp2571
sg24
I00
sg25
Nsg34
I00
sg36
g37
sg38
I91
sV_targetLabel
p2572
g721
sg130
g2566
sbssV_Process__aliases
p2573
(dp2574
sV_Process__psets
p2575
(dp2576
VmaxLuminosityBlocks
p2577
g0
(g208
g2
Ntp2578
Rp2579
(dp2580
g24
I00
sg33
I00
sg34
I00
sg21
(lp2581
Vinput
p2582
asg25
Nsg2582
g0
(g216
g2
Ntp2583
Rp2584
(dp2585
g24
I00
sg33
I00
sg34
I00
sg79
I-1
sbsg130
g2577
sbsVoptions
p2586
g0
(g208
g2
Ntp2587
Rp2588
(dp2589
g24
I00
sg33
I00
sg34
I01
sg21
(lp2590
VnumberOfThreads
p2591
aVnumberOfStreams
p2592
aVnumberOfConcurrentRuns
p2593
aVnumberOfConcurrentLuminosityBlocks
p2594
aVeventSetup
p2595
aVaccelerators
p2596
aVwantSummary
p2597
aVfileMode
p2598
aVforceEventSetupCacheClearOnNewRun
p2599
aVthrowIfIllegalParameter
p2600
aVprintDependencies
p2601
aVdeleteNonConsumedUnscheduledModules
p2602
aVsizeOfStackForThreadsInKB
p2603
aVRethrow
p2604
aVSkipEvent
p2605
aVFailPath
p2606
aVIgnoreCompletely
p2607
aVcanDeleteEarly
p2608
aVdumpOptions
p2609
aVallowUnscheduled
p2610
aVemptyRunLumiMode
p2611
aVmakeTriggerResults
p2612
asg25
Nsg2591
g0
(g2055
g2
Ntp2613
Rp2614
(dp2615
g24
I00
sg33
I00
sg34
I00
sg79
I1
sbsg2592
g0
(g2055
g2
Ntp2616
Rp2617
(dp2618
g24
I00
sg33
I00
sg34
I00
sg79
I0
sbsg2593
g0
(g2055
g2
Ntp2619
Rp2620
(dp2621
g24
I00
sg33
I00
sg34
I00
sg79
I1
sbsg2594
g0
(g2055
g2
Ntp2622
Rp2623
(dp2624
g24
I00
sg33
I00
sg34
I00
sg79
I0
sbsg2595
g0
(g208
g2
Ntp2625
Rp2626
(dp2627
g24
I00
sg33
I00
sg34
I00
sg21
(lp2628
VnumberOfConcurrentIOVs
p2629
aVforceNumberOfConcurrentIOVs
p2630
asg25
Nsg2629
g0
(g2055
g2
Ntp2631
Rp2632
(dp2633
g24
I00
sg33
I00
sg34
I00
sg79
I0
sbsg2630
g0
(g208
g2
Ntp2634
Rp2635
(dp2636
g24
I00
sg33
I00
sg34
I00
sg21
(lp2637
sg25
g0
(cFWCore.ParameterSet.Types
_RequiredParameter
p2638
g2
Ntp2639
Rp2640
(dp2641
g24
I00
sg33
I00
sg34
I00
sg202
g2055
sg223
Nsbsbsbsg2596
g0
(g26
g27
(lp2642
V*
p2643
atp2644
Rp2645
(dp2646
g24
I00
sg33
I00
sg34
I00
sg35
I1
sbsg2597
g0
(g75
g2
Ntp2647
Rp2648
(dp2649
g24
I00
sg33
I00
sg34
I00
sg79
I01
sbsg2598
g0
(g272
g2
Ntp2650
Rp2651
(dp2652
g24
I00
sg33
I00
sg34
I00
sg79
VFULLMERGE
p2653
sbsg2599
g0
(g75
g2
Ntp2654
Rp2655
(dp2656
g24
I00
sg33
I00
sg34
I00
sg79
I00
sbsg2600
g0
(g75
g2
Ntp2657
Rp2658
(dp2659
g24
I00
sg33
I00
sg34
I00
sg79
I01
sbsg2601
g0
(g75
g2
Ntp2660
Rp2661
(dp2662
g24
I00
sg33
I00
sg34
I00
sg79
I00
sbsg2602
g0
(g75
g2
Ntp2663
Rp2664
(dp2665
g24
I00
sg33
I00
sg34
I00
sg79
I01
sbsg2603
g0
(g198
g2
Ntp2666
Rp2667
(dp2668
g24
I00
sg33
I00
sg34
I00
sg202
g2055
sg223
Nsbsg2604
g0
(g26
g27
(lp2669
tp2670
Rp2671
(dp2672
g24
I00
sg33
I00
sg34
I00
sg35
I1
sbsg2605
g0
(g26
g27
(lp2673
tp2674
Rp2675
(dp2676
g24
I00
sg33
I00
sg34
I00
sg35
I1
sbsg2606
g0
(g26
g27
(lp2677
tp2678
Rp2679
(dp2680
g24
I00
sg33
I00
sg34
I00
sg35
I1
sbsg2607
g0
(g26
g27
(lp2681
tp2682
Rp2683
(dp2684
g24
I00
sg33
I00
sg34
I00
sg35
I1
sbsg2608
g0
(g26
g27
(lp2685
tp2686
Rp2687
(dp2688
g24
I00
sg33
I00
sg34
I00
sg35
I1
sbsg2609
g0
(g75
g2
Ntp2689
Rp2690
(dp2691
g24
I00
sg33
I00
sg34
I00
sg79
I00
sbsg2610
g0
(cFWCore.ParameterSet.Types
_ObsoleteParameter
p2692
g2
Ntp2693
Rp2694
(dp2695
g24
I00
sg33
I00
sg34
I00
sg202
g75
sg223
Nsbsg2611
g0
(g2692
g2
Ntp2696
Rp2697
(dp2698
g24
I00
sg33
I00
sg34
I00
sg202
g272
sg223
Nsbsg2612
g0
(g2692
g2
Ntp2699
Rp2700
(dp2701
g24
I00
sg33
I00
sg34
I00
sg202
g75
sg223
Nsbsg130
g2586
sbsVmaxEvents
p2702
g0
(g208
g2
Ntp2703
Rp2704
(dp2705
g24
I00
sg33
I00
sg34
I01
sg21
(lp2706
g2582
ag403
asg25
Nsg2582
g0
(g216
g2
Ntp2707
Rp2708
(dp2709
g24
I00
sg33
I00
sg34
I00
sg79
I-1
sbsg403
g0
(g198
g2
Ntp2710
Rp2711
(dp2712
g24
I00
sg33
I00
sg34
I00
sg202
g0
(cFWCore.ParameterSet.Types
_AllowedParameterTypes
p2713
g2
Ntp2714
Rp2715
(dp2716
V_AllowedParameterTypes__types
p2717
(g216
g208
tp2718
sV_AllowedParameterTypes__value
p2719
NsV__name__
p2720
Vallowed(cms.int32,cms.PSet)
p2721
sbsg223
Nsbsg130
g2702
sbsVCondDB
p2722
g0
(g208
g2
Ntp2723
Rp2724
(dp2725
g24
I00
sg33
I01
sg34
I00
sg21
(lp2726
g476
ag477
asg25
Nsg476
g0
(g208
g2
Ntp2727
Rp2728
(dp2729
g24
I00
sg33
I01
sg34
I00
sg21
(lp2730
g492
ag493
ag494
ag495
ag496
asg25
Nsg492
g0
(g272
g2
Ntp2731
Rp2732
(dp2733
g24
I00
sg33
I00
sg34
I00
sg79
g72
sbsg493
g0
(g216
g2
Ntp2734
Rp2735
(dp2736
g24
I00
sg33
I00
sg34
I00
sg79
I0
sbsg494
g0
(g272
g2
Ntp2737
Rp2738
(dp2739
g24
I00
sg33
I00
sg34
I00
sg79
g72
sbsg495
g0
(g216
g2
Ntp2740
Rp2741
(dp2742
g24
I00
sg33
I00
sg34
I00
sg79
I0
sbsg496
g0
(g216
g2
Ntp2743
Rp2744
(dp2745
g24
I00
sg33
I00
sg34
I00
sg79
I0
sbsbsg477
g0
(g272
g2
Ntp2746
Rp2747
(dp2748
g24
I00
sg33
I01
sg34
I00
sg79
g72
sbsg130
g2722
sbsg735
g787
ssV_Process__vpsets
p2749
(dp2750
sV_cloneToObjectDict
p2751
(dp2752
L140400540055728L
g0
(g208
g2
Ntp2753
Rp2754
(dp2755
g24
I00
sg33
I00
sg34
I01
sg21
(lp2756
g2591
ag2592
ag2593
ag2594
ag2595
ag2596
ag2597
ag2598
ag2599
ag2600
ag2601
ag2602
ag2603
ag2604
ag2605
ag2606
ag2607
ag2608
ag2609
ag2610
ag2611
ag2612
asg25
Nsg2591
g0
(g2055
g2
Ntp2757
Rp2758
(dp2759
g24
I00
sg33
I00
sg34
I00
sg79
I1
sbsg2592
g0
(g2055
g2
Ntp2760
Rp2761
(dp2762
g24
I00
sg33
I00
sg34
I00
sg79
I0
sbsg2593
g0
(g2055
g2
Ntp2763
Rp2764
(dp2765
g24
I00
sg33
I00
sg34
I00
sg79
I1
sbsg2594
g0
(g2055
g2
Ntp2766
Rp2767
(dp2768
g24
I00
sg33
I00
sg34
I00
sg79
I0
sbsg2595
g0
(g208
g2
Ntp2769
Rp2770
(dp2771
g24
I00
sg33
I00
sg34
I00
sg21
(lp2772
g2629
ag2630
asg25
Nsg2629
g0
(g2055
g2
Ntp2773
Rp2774
(dp2775
g24
I00
sg33
I00
sg34
I00
sg79
I0
sbsg2630
g0
(g208
g2
Ntp2776
Rp2777
(dp2778
g24
I00
sg33
I00
sg34
I00
sg21
(lp2779
sg25
g0
(g2638
g2
Ntp2780
Rp2781
(dp2782
g24
I00
sg33
I00
sg34
I00
sg202
g2055
sg223
Nsbsbsbsg2596
g0
(g26
g27
(lp2783
g2643
atp2784
Rp2785
(dp2786
g24
I00
sg33
I00
sg34
I00
sg35
I1
sbsg2597
g0
(g75
g2
Ntp2787
Rp2788
(dp2789
g24
I00
sg33
I00
sg34
I00
sg79
I00
sbsg2598
g0
(g272
g2
Ntp2790
Rp2791
(dp2792
g24
I00
sg33
I00
sg34
I00
sg79
g2653
sbsg2599
g0
(g75
g2
Ntp2793
Rp2794
(dp2795
g24
I00
sg33
I00
sg34
I00
sg79
I00
sbsg2600
g0
(g75
g2
Ntp2796
Rp2797
(dp2798
g24
I00
sg33
I00
sg34
I00
sg79
I01
sbsg2601
g0
(g75
g2
Ntp2799
Rp2800
(dp2801
g24
I00
sg33
I00
sg34
I00
sg79
I00
sbsg2602
g0
(g75
g2
Ntp2802
Rp2803
(dp2804
g24
I00
sg33
I00
sg34
I00
sg79
I01
sbsg2603
g0
(g198
g2
Ntp2805
Rp2806
(dp2807
g24
I00
sg33
I00
sg34
I00
sg202
g2055
sg223
Nsbsg2604
g0
(g26
g27
(lp2808
tp2809
Rp2810
(dp2811
g24
I00
sg33
I00
sg34
I00
sg35
I1
sbsg2605
g0
(g26
g27
(lp2812
tp2813
Rp2814
(dp2815
g24
I00
sg33
I00
sg34
I00
sg35
I1
sbsg2606
g0
(g26
g27
(lp2816
tp2817
Rp2818
(dp2819
g24
I00
sg33
I00
sg34
I00
sg35
I1
sbsg2607
g0
(g26
g27
(lp2820
tp2821
Rp2822
(dp2823
g24
I00
sg33
I00
sg34
I00
sg35
I1
sbsg2608
g0
(g26
g27
(lp2824
tp2825
Rp2826
(dp2827
g24
I00
sg33
I00
sg34
I00
sg35
I1
sbsg2609
g0
(g75
g2
Ntp2828
Rp2829
(dp2830
g24
I00
sg33
I00
sg34
I00
sg79
I00
sbsg2610
g0
(g2692
g2
Ntp2831
Rp2832
(dp2833
g24
I00
sg33
I00
sg34
I00
sg202
g75
sg223
Nsbsg2611
g0
(g2692
g2
Ntp2834
Rp2835
(dp2836
g24
I00
sg33
I00
sg34
I00
sg202
g272
sg223
Nsbsg2612
g0
(g2692
g2
Ntp2837
Rp2838
(dp2839
g24
I00
sg33
I00
sg34
I00
sg202
g75
sg223
Nsbsg130
NsbsL140400537382480L
g0
(g208
g2
Ntp2840
Rp2841
(dp2842
g24
I00
sg33
I00
sg34
I01
sg21
(lp2843
g2582
ag403
asg25
Nsg2582
g0
(g198
g2
Ntp2844
Rp2845
(dp2846
g24
I00
sg33
I00
sg34
I00
sg202
g216
sg223
Nsbsg403
g0
(g198
g2
Ntp2847
Rp2848
(dp2849
g24
I00
sg33
I00
sg34
I00
sg202
g0
(g2713
g2
Ntp2850
Rp2851
(dp2852
g2717
(g216
g208
tp2853
sg2719
Nsg2720
Vallowed(cms.int32,cms.PSet)
p2854
sbsg223
Nsbsg130
NsbsL140400537379552L
g2579
sL140400537382336L
g2588
sL140400540204096L
g2704
sL140400540201984L
g1420
sL140400537913232L
g1430
sL140400538388704L
g1474
sL140400538420272L
g1491
sL140400538127088L
g1496
sL140400538124448L
g1504
sL140400538125312L
g1509
sL140400538402432L
g1517
sL140400538127376L
g1554
sL140400538390384L
g1562
sL140400538388992L
g1567
sL140400538126416L
g1575
sL140400538420608L
g1583
sL140400537913424L
g1593
sL140400538127040L
g1598
sL140400538389136L
g1603
sL140400538419456L
g1611
sL140400537913472L
g1616
sL140400538421280L
g1627
sL140400543275856L
g1636
sL140400538125600L
g1645
sL140400542377200L
g450
sL140400539859888L
g1653
sL140400539859456L
g1664
sL140400539858016L
g1673
sL140400538124592L
g1682
sL140400542376864L
g1699
sL140400544804096L
g1736
sL140400542377344L
g1766
sL140400538387504L
g1785
sL140400538400032L
g1797
sL140400538399408L
g1814
sL140400538419840L
g1829
sL140400540171376L
g1838
sL140400540168448L
g1843
sL140400538647520L
g1859
sL140400540169120L
g1871
sL140400540171232L
g1888
sL140400540169264L
g1904
sL140400541051776L
g1919
sL140400541052448L
g1928
sL140400538647760L
g1940
sL140400538645936L
g2008
sL140400538646272L
g2027
sL140400538384512L
g2043
sL140400539596544L
g2724
sL140400537555632L
g2051
sL140400537557312L
g2061
sL140400539595248L
g472
sL140400544296288L
g787
sL140400544293312L
g552
sL140400536042320L
g2069
sL140400536041456L
g2086
sL140400535570416L
g2158
sL140400535570944L
g2223
sL140400538384224L
g723
sL140400538384464L
g2569
sL140400540355936L
g2239
sL140400536068832L
g2254
sL140400536043184L
g2263
sL140400535997888L
g2302
sL140400535996208L
g2345
sL140400535996976L
g2398
sL140400536069360L
g2437
sL140400538310736L
g2543
sL140400536040400L
g2549
sL140400535571280L
g48
sL140400535572192L
g140
ssV_Process__InExtendCall
p2855
I00
sV_Process__partialschedules
p2856
(dp2857
sV_Process__isStrict
p2858
I00
sV_Process__modifiers
p2859
(tsV_Process__accelerators
p2860
(dp2861
sg2577
g2579
sg183
g186
sg2586
g2588
sg2702
g2704
sVsource
p2862
g17
sg20
g17
sg435
g437
sg1417
g1420
sg1428
g1430
sg1472
g1474
sg1489
g1491
sg1494
g1496
sg1502
g1504
sg1507
g1509
sg1515
g1517
sg1552
g1554
sg1560
g1562
sg1565
g1567
sg1573
g1575
sg1581
g1583
sg1591
g1593
sg1596
g1598
sg1601
g1603
sg1609
g1611
sg1614
g1616
sg1625
g1627
sg1634
g1636
sg1643
g1645
sg447
g450
sg1651
g1653
sg1662
g1664
sg1671
g1673
sg1680
g1682
sg1697
g1699
sg1734
g1736
sg1764
g1766
sg1783
g1785
sg1795
g1797
sg1812
g1814
sg1827
g1829
sg1836
g1838
sg1841
g1843
sg1857
g1859
sg1869
g1871
sg1886
g1888
sg1902
g1904
sg1917
g1919
sg1926
g1928
sg1938
g1940
sg2006
g2008
sg2025
g2027
sg2041
g2043
sg2722
g2724
sg2049
g2051
sg2059
g2061
sg470
g472
sg735
g787
sg550
g552
sg2067
g2069
sg2084
g2086
sg2156
g2158
sg2221
g2223
sg721
g723
sg2566
g2569
sg2237
g2239
sg2252
g2254
sg2261
g2263
sg2300
g2302
sg2343
g2345
sg2396
g2398
sg2435
g2437
sg2541
g2543
sg2547
g2549
sg45
g48
sg137
g140
sb.