(dp0
VServer
p1
Vcmsweb.cern.ch
p2
sVPort
p3
V
p4
sVRequestName
p5
V230814_191250:jfriesen_crab_muMuGamma_ParkingPFCands_14Aug2023_1
p6
sVvoRole
p7
VNULL
p8
sVvoGroup
p9
g4
sVinstance
p10
Vprod
p11
sVOriginalConfig
p12
ccopy_reg
_reconstructor
p13
(cWMCore.Configuration
Configuration
p14
c__builtin__
object
p15
Ntp16
Rp17
(dp18
V_internal_sections
p19
(lp20
VGeneral
p21
aVJobType
p22
aVData
p23
aVSite
p24
aVUser
p25
aVDebug
p26
asg21
g13
(cWMCore.Configuration
ConfigSection
p27
g15
Ntp28
Rp29
(dp30
V_internal_documentation
p31
g4
sV_internal_name
p32
g21
sV_internal_settings
p33
c__builtin__
set
p34
((lp35
VrequestName
p36
atp37
Rp38
sV_internal_docstrings
p39
(dp40
sV_internal_children
p41
g34
((lp42
tp43
Rp44
sV_internal_parent_ref
p45
NsV_internal_skipChecks
p46
I00
sg36
VmuMuGamma_ParkingPFCands_14Aug2023_1
p47
sbsg22
g13
(g27
g15
Ntp48
Rp49
(dp50
g31
g4
sg32
g22
sg33
g34
((lp51
VpluginName
p52
aVpsetName
p53
atp54
Rp55
sg39
(dp56
sg41
g34
((lp57
tp58
Rp59
sg45
Nsg46
I00
sg52
VAnalysis
p60
sg53
VmuMuGammaTree.py
p61
sbsg23
g13
(g27
g15
Ntp62
Rp63
(dp64
g31
g4
sg32
g23
sg33
g34
((lp65
VlumiMask
p66
aVinputDataset
p67
atp68
Rp69
sg39
(dp70
sg41
g34
((lp71
tp72
Rp73
sg45
Nsg46
I00
sg67
V/ParkingDoubleMuonLowMass1/Run2022F-PromptReco-v1/MINIAOD
p74
sg66
VCert_Collisions2022_355100_362760_Golden.json
p75
sbsg24
g13
(g27
g15
Ntp76
Rp77
(dp78
g31
g4
sg32
g24
sg33
g34
((lp79
VstorageSite
p80
atp81
Rp82
sg39
(dp83
sg41
g34
((lp84
tp85
Rp86
sg45
Nsg46
I00
sg80
VT2_US_MIT
p87
sbsg25
g13
(g27
g15
Ntp88
Rp89
(dp90
g31
g4
sg32
g25
sg33
g34
((lp91
tp92
Rp93
sg39
(dp94
sg41
g34
((lp95
tp96
Rp97
sg45
Nsg46
I00
sbsg26
g13
(g27
g15
Ntp98
Rp99
(dp100
g31
g4
sg32
g26
sg33
g34
((lp101
tp102
Rp103
sg39
(dp104
sg41
g34
((lp105
tp106
Rp107
sg45
Nsg46
I00
sbsbs.